<?xml version="1.0" encoding="utf-8"?>
<?xml-stylesheet type="text/xsl" href="pdml2html.xsl"?>
<!-- You can find pdml2html.xsl in /Applications/Wireshark.app/Contents/Resources/share/wireshark or at https://gitlab.com/wireshark/wireshark/-/raw/master/pdml2html.xsl. -->
<pdml version="0" creator="wireshark/3.6.21" time="Thu Apr  4 17:39:31 2024" capture_file="collected/one-reg-open5gs-ueransim.pcapng">
<packet>
  <proto name="geninfo" pos="0" showname="General information" size="134">
    <field name="num" pos="0" show="5" showname="Number" value="5" size="134"/>
    <field name="len" pos="0" show="134" showname="Frame Length" value="86" size="134"/>
    <field name="caplen" pos="0" show="134" showname="Captured Length" value="86" size="134"/>
    <field name="timestamp" pos="0" show="Apr  4, 2024 12:26:38.067521000 IST" showname="Captured Time" value="1712213798.067521000" size="134"/>
  </proto>
  <proto name="frame" showname="Frame 5: 134 bytes on wire (1072 bits), 134 bytes captured (1072 bits) on interface bridge104, id 0" size="134" pos="0">
    <field name="filtered" value="frame" />
  </proto>
  <proto name="eth" showname="Ethernet II, Src: 00:1c:42:45:12:08, Dst: 00:1c:42:16:da:82" size="14" pos="0">
    <field name="filtered" value="eth" />
  </proto>
  <proto name="ip" showname="Internet Protocol Version 4, Src: 192.168.56.120, Dst: 192.168.56.100" size="20" pos="14">
    <field name="filtered" value="ip" />
  </proto>
  <proto name="sctp" showname="Stream Control Transmission Protocol, Src Port: 59338 (59338), Dst Port: 38412 (38412)" size="28" pos="34">
    <field name="filtered" value="sctp" />
  </proto>
  <proto name="ngap" showname="NG Application Protocol (NGSetupRequest)" size="69" pos="62">
    <field name="per.extension_bit" showname="0... .... Extension Bit: False" hide="yes" size="1" pos="62" show="0" value="0" unmaskedvalue="00"/>
    <field name="per.choice_index" showname="Choice Index: 0" hide="yes" size="1" pos="62" show="0" value="00"/>
    <field name="ngap.NGAP_PDU" showname="NGAP-PDU: initiatingMessage (0)" size="69" pos="62" show="0" value="00150041000004001b00090099f9075000000001005240170a00554552414e53494d2d676e622d3939392d37302d310066000d00000000010099f907000000080015400140">
      <field name="ngap.initiatingMessage_element" showname="initiatingMessage" size="69" pos="62" show="" value="">
        <field name="ngap.procedureCode" showname="procedureCode: id-NGSetup (21)" size="1" pos="63" show="21" value="15"/>
        <field name="per.enum_index" showname="Enumerated Index: 0" hide="yes" size="1" pos="64" show="0" value="00"/>
        <field name="ngap.criticality" showname="criticality: reject (0)" size="1" pos="64" show="0" value="00"/>
        <field name="per.open_type_length" showname="Open Type Length: 65" hide="yes" size="1" pos="65" show="65" value="41"/>
        <field name="ngap.value_element" showname="value" size="65" pos="66" show="" value="">
          <field name="ngap.NGSetupRequest_element" showname="NGSetupRequest" size="65" pos="66" show="" value="">
            <field name="per.extension_bit" showname="0... .... Extension Bit: False" hide="yes" size="1" pos="66" show="0" value="0" unmaskedvalue="00"/>
            <field name="per.sequence_of_length" showname="Sequence-Of Length: 4" hide="yes" size="2" pos="67" show="4" value="0004"/>
            <field name="ngap.protocolIEs" showname="protocolIEs: 4 items" size="62" pos="69" show="4" value="001b00090099f9075000000001005240170a00554552414e53494d2d676e622d3939392d37302d310066000d00000000010099f907000000080015400140">
              <field name="" show="Item 0: id-GlobalRANNodeID" size="13" pos="69" value="001b00090099f9075000000001">
                <field name="ngap.ProtocolIE_Field_element" showname="ProtocolIE-Field" size="13" pos="69" show="" value="">
                  <field name="ngap.id" showname="id: id-GlobalRANNodeID (27)" size="2" pos="69" show="27" value="001b"/>
                  <field name="per.enum_index" showname="Enumerated Index: 0" hide="yes" size="1" pos="71" show="0" value="00"/>
                  <field name="ngap.criticality" showname="criticality: reject (0)" size="1" pos="71" show="0" value="00"/>
                  <field name="per.open_type_length" showname="Open Type Length: 9" hide="yes" size="1" pos="72" show="9" value="09"/>
                  <field name="ngap.value_element" showname="value" size="9" pos="73" show="" value="">
                    <field name="per.choice_index" showname="Choice Index: 0" hide="yes" size="1" pos="73" show="0" value="00"/>
                    <field name="ngap.GlobalRANNodeID" showname="GlobalRANNodeID: globalGNB-ID (0)" size="9" pos="73" show="0" value="0099f9075000000001">
                      <field name="ngap.globalGNB_ID_element" showname="globalGNB-ID" size="9" pos="73" show="" value="">
                        <field name="per.extension_bit" showname="..0. .... Extension Bit: False" hide="yes" size="1" pos="73" show="0" value="0" unmaskedvalue="00"/>
                        <field name="per.optional_field_bit" showname="...0 .... Optional Field Bit: False (iE-Extensions is NOT present)" hide="yes" size="1" pos="73" show="0" value="0" unmaskedvalue="00"/>
                        <field name="ngap.pLMNIdentity" showname="pLMNIdentity: 99f907" size="3" pos="74" show="99:f9:07" value="99f907">
                          <field name="e212.mcc" showname="Mobile Country Code (MCC): Private network (999)" size="2" pos="74" show="999" value="99f9"/>
                          <field name="e212.mnc" showname="Mobile Network Code (MNC): Unknown (70)" size="2" pos="75" show="70" value="f907"/>
                        </field>
                        <field name="per.choice_index" showname="Choice Index: 0" hide="yes" size="1" pos="77" show="0" value="50"/>
                        <field name="ngap.globalGNB_ID.gNB_ID" showname="gNB-ID: gNB-ID (0)" size="5" pos="77" show="0" value="5000000001">
                          <field name="per.bit_string_length" showname="Bit String Length: 32" hide="yes" size="1" pos="77" show="32" value="50"/>
                          <field name="ngap.gNB_ID" showname="gNB-ID: 00000001 [bit length 32, 0000 0000  0000 0000  0000 0000  0000 0001 decimal value 1]" size="4" pos="78" show="00:00:00:01" value="00000001"/>
                        </field>
                      </field>
                    </field>
                  </field>
                </field>
              </field>
              <field name="" show="Item 1: id-RANNodeName" size="27" pos="82" value="005240170a00554552414e53494d2d676e622d3939392d37302d31">
                <field name="ngap.ProtocolIE_Field_element" showname="ProtocolIE-Field" size="27" pos="82" show="" value="">
                  <field name="ngap.id" showname="id: id-RANNodeName (82)" size="2" pos="82" show="82" value="0052"/>
                  <field name="per.enum_index" showname="Enumerated Index: 1" hide="yes" size="1" pos="84" show="1" value="40"/>
                  <field name="ngap.criticality" showname="criticality: ignore (1)" size="1" pos="84" show="1" value="40"/>
                  <field name="per.open_type_length" showname="Open Type Length: 23" hide="yes" size="1" pos="85" show="23" value="17"/>
                  <field name="ngap.value_element" showname="value" size="23" pos="86" show="" value="">
                    <field name="per.extension_present_bit" showname="0... .... Extension Present Bit: False" hide="yes" size="1" pos="86" show="0" value="0" unmaskedvalue="0a"/>
                    <field name="per.octet_string_length" showname="Octet String Length: 21" hide="yes" size="1" pos="86" show="21" value="0a"/>
                    <field name="ngap.RANNodeName" showname="RANNodeName: UERANSIM-gnb-999-70-1" size="21" pos="88" show="UERANSIM-gnb-999-70-1" value="554552414e53494d2d676e622d3939392d37302d31"/>
                  </field>
                </field>
              </field>
              <field name="" show="Item 2: id-SupportedTAList" size="17" pos="109" value="0066000d00000000010099f90700000008">
                <field name="ngap.ProtocolIE_Field_element" showname="ProtocolIE-Field" size="17" pos="109" show="" value="">
                  <field name="ngap.id" showname="id: id-SupportedTAList (102)" size="2" pos="109" show="102" value="0066"/>
                  <field name="per.enum_index" showname="Enumerated Index: 0" hide="yes" size="1" pos="111" show="0" value="00"/>
                  <field name="ngap.criticality" showname="criticality: reject (0)" size="1" pos="111" show="0" value="00"/>
                  <field name="per.open_type_length" showname="Open Type Length: 13" hide="yes" size="1" pos="112" show="13" value="0d"/>
                  <field name="ngap.value_element" showname="value" size="13" pos="113" show="" value="">
                    <field name="per.sequence_of_length" showname="Sequence-Of Length: 1" hide="yes" size="1" pos="113" show="1" value="00"/>
                    <field name="ngap.SupportedTAList" showname="SupportedTAList: 1 item" size="11" pos="114" show="1" value="000000010099f907000000">
                      <field name="" show="Item 0" size="11" pos="114" value="000000010099f907000000">
                        <field name="ngap.SupportedTAItem_element" showname="SupportedTAItem" size="11" pos="114" show="" value="">
                          <field name="per.extension_bit" showname="0... .... Extension Bit: False" hide="yes" size="1" pos="114" show="0" value="0" unmaskedvalue="00"/>
                          <field name="per.optional_field_bit" showname=".0.. .... Optional Field Bit: False (iE-Extensions is NOT present)" hide="yes" size="1" pos="114" show="0" value="0" unmaskedvalue="00"/>
                          <field name="ngap.tAC" showname="tAC: 1 (0x000001)" size="3" pos="115" show="1" value="000001"/>
                          <field name="per.sequence_of_length" showname="Sequence-Of Length: 1" hide="yes" size="1" pos="118" show="1" value="00"/>
                          <field name="ngap.broadcastPLMNList" showname="broadcastPLMNList: 1 item" size="7" pos="118" show="1" value="0099f907000000">
                            <field name="" show="Item 0" size="7" pos="118" value="0099f907000000">
                              <field name="ngap.BroadcastPLMNItem_element" showname="BroadcastPLMNItem" size="7" pos="118" show="" value="">
                                <field name="per.extension_bit" showname=".... 0... Extension Bit: False" hide="yes" size="1" pos="118" show="0" value="0" unmaskedvalue="00"/>
                                <field name="per.optional_field_bit" showname=".... .0.. Optional Field Bit: False (iE-Extensions is NOT present)" hide="yes" size="1" pos="118" show="0" value="0" unmaskedvalue="00"/>
                                <field name="ngap.pLMNIdentity" showname="pLMNIdentity: 99f907" size="3" pos="119" show="99:f9:07" value="99f907">
                                  <field name="e212.mcc" showname="Mobile Country Code (MCC): Private network (999)" size="2" pos="119" show="999" value="99f9"/>
                                  <field name="e212.mnc" showname="Mobile Network Code (MNC): Unknown (70)" size="2" pos="120" show="70" value="f907"/>
                                </field>
                                <field name="per.sequence_of_length" showname="Sequence-Of Length: 1" hide="yes" size="2" pos="122" show="1" value="0000"/>
                                <field name="ngap.tAISliceSupportList" showname="tAISliceSupportList: 1 item" size="1" pos="124" show="1" value="00">
                                  <field name="" show="Item 0" size="1" pos="124" value="00">
                                    <field name="ngap.SliceSupportItem_element" showname="SliceSupportItem" size="1" pos="124" show="" value="">
                                      <field name="per.extension_bit" showname="0... .... Extension Bit: False" hide="yes" size="1" pos="124" show="0" value="0" unmaskedvalue="00"/>
                                      <field name="per.optional_field_bit" showname=".0.. .... Optional Field Bit: False (iE-Extensions is NOT present)" hide="yes" size="1" pos="124" show="0" value="0" unmaskedvalue="00"/>
                                      <field name="ngap.s_NSSAI_element" showname="s-NSSAI" size="1" pos="124" show="" value="">
                                        <field name="per.extension_bit" showname="..0. .... Extension Bit: False" hide="yes" size="1" pos="124" show="0" value="0" unmaskedvalue="00"/>
                                        <field name="per.optional_field_bit" showname="...0 .... Optional Field Bit: False (sD is NOT present)" hide="yes" size="1" pos="124" show="0" value="0" unmaskedvalue="00"/>
                                        <field name="per.optional_field_bit" showname=".... 0... Optional Field Bit: False (iE-Extensions is NOT present)" hide="yes" size="1" pos="124" show="0" value="0" unmaskedvalue="00"/>
                                        <field name="ngap.sST" showname="sST: 01" size="1" pos="124" show="01" value="01"/>
                                      </field>
                                    </field>
                                  </field>
                                </field>
                              </field>
                            </field>
                          </field>
                        </field>
                      </field>
                    </field>
                  </field>
                </field>
              </field>
              <field name="" show="Item 3: id-DefaultPagingDRX" size="5" pos="126" value="0015400140">
                <field name="ngap.ProtocolIE_Field_element" showname="ProtocolIE-Field" size="5" pos="126" show="" value="">
                  <field name="ngap.id" showname="id: id-DefaultPagingDRX (21)" size="2" pos="126" show="21" value="0015"/>
                  <field name="per.enum_index" showname="Enumerated Index: 1" hide="yes" size="1" pos="128" show="1" value="40"/>
                  <field name="ngap.criticality" showname="criticality: ignore (1)" size="1" pos="128" show="1" value="40"/>
                  <field name="per.open_type_length" showname="Open Type Length: 1" hide="yes" size="1" pos="129" show="1" value="01"/>
                  <field name="ngap.value_element" showname="value" size="1" pos="130" show="" value="">
                    <field name="per.extension_present_bit" showname="0... .... Extension Present Bit: False" hide="yes" size="1" pos="130" show="0" value="0" unmaskedvalue="40"/>
                    <field name="per.enum_index" showname="Enumerated Index: 2" hide="yes" size="1" pos="130" show="2" value="40"/>
                    <field name="ngap.PagingDRX" showname="PagingDRX: v128 (2)" size="1" pos="130" show="2" value="40"/>
                  </field>
                </field>
              </field>
            </field>
          </field>
        </field>
      </field>
    </field>
  </proto>
</packet>


<packet>
  <proto name="geninfo" pos="0" showname="General information" size="118">
    <field name="num" pos="0" show="7" showname="Number" value="7" size="118"/>
    <field name="len" pos="0" show="118" showname="Frame Length" value="76" size="118"/>
    <field name="caplen" pos="0" show="118" showname="Captured Length" value="76" size="118"/>
    <field name="timestamp" pos="0" show="Apr  4, 2024 12:26:38.071167000 IST" showname="Captured Time" value="1712213798.071167000" size="118"/>
  </proto>
  <proto name="frame" showname="Frame 7: 118 bytes on wire (944 bits), 118 bytes captured (944 bits) on interface bridge104, id 0" size="118" pos="0">
    <field name="filtered" value="frame" />
  </proto>
  <proto name="eth" showname="Ethernet II, Src: 00:1c:42:16:da:82, Dst: 00:1c:42:45:12:08" size="14" pos="0">
    <field name="filtered" value="eth" />
  </proto>
  <proto name="ip" showname="Internet Protocol Version 4, Src: 192.168.56.100, Dst: 192.168.56.120" size="20" pos="14">
    <field name="filtered" value="ip" />
  </proto>
  <proto name="sctp" showname="Stream Control Transmission Protocol, Src Port: 38412 (38412), Dst Port: 59338 (59338)" size="28" pos="34">
    <field name="filtered" value="sctp" />
  </proto>
  <proto name="ngap" showname="NG Application Protocol (NGSetupResponse)" size="54" pos="62">
    <field name="per.extension_bit" showname="0... .... Extension Bit: False" hide="yes" size="1" pos="62" show="0" value="0" unmaskedvalue="20"/>
    <field name="per.choice_index" showname="Choice Index: 1" hide="yes" size="1" pos="62" show="1" value="20"/>
    <field name="ngap.NGAP_PDU" showname="NGAP-PDU: successfulOutcome (1)" size="54" pos="62" show="1" value="201500320000040001000e05806f70656e3567732d616d663000600008000099f90702004000564001ff005000080099f90700000008">
      <field name="ngap.successfulOutcome_element" showname="successfulOutcome" size="54" pos="62" show="" value="">
        <field name="ngap.procedureCode" showname="procedureCode: id-NGSetup (21)" size="1" pos="63" show="21" value="15"/>
        <field name="per.enum_index" showname="Enumerated Index: 0" hide="yes" size="1" pos="64" show="0" value="00"/>
        <field name="ngap.criticality" showname="criticality: reject (0)" size="1" pos="64" show="0" value="00"/>
        <field name="per.open_type_length" showname="Open Type Length: 50" hide="yes" size="1" pos="65" show="50" value="32"/>
        <field name="ngap.value_element" showname="value" size="50" pos="66" show="" value="">
          <field name="ngap.NGSetupResponse_element" showname="NGSetupResponse" size="50" pos="66" show="" value="">
            <field name="per.extension_bit" showname="0... .... Extension Bit: False" hide="yes" size="1" pos="66" show="0" value="0" unmaskedvalue="00"/>
            <field name="per.sequence_of_length" showname="Sequence-Of Length: 4" hide="yes" size="2" pos="67" show="4" value="0004"/>
            <field name="ngap.protocolIEs" showname="protocolIEs: 4 items" size="47" pos="69" show="4" value="0001000e05806f70656e3567732d616d663000600008000099f90702004000564001ff005000080099f90700000008">
              <field name="" show="Item 0: id-AMFName" size="18" pos="69" value="0001000e05806f70656e3567732d616d6630">
                <field name="ngap.ProtocolIE_Field_element" showname="ProtocolIE-Field" size="18" pos="69" show="" value="">
                  <field name="ngap.id" showname="id: id-AMFName (1)" size="2" pos="69" show="1" value="0001"/>
                  <field name="per.enum_index" showname="Enumerated Index: 0" hide="yes" size="1" pos="71" show="0" value="00"/>
                  <field name="ngap.criticality" showname="criticality: reject (0)" size="1" pos="71" show="0" value="00"/>
                  <field name="per.open_type_length" showname="Open Type Length: 14" hide="yes" size="1" pos="72" show="14" value="0e"/>
                  <field name="ngap.value_element" showname="value" size="14" pos="73" show="" value="">
                    <field name="per.extension_present_bit" showname="0... .... Extension Present Bit: False" hide="yes" size="1" pos="73" show="0" value="0" unmaskedvalue="05"/>
                    <field name="per.octet_string_length" showname="Octet String Length: 12" hide="yes" size="1" pos="73" show="12" value="05"/>
                    <field name="ngap.AMFName" showname="AMFName: open5gs-amf0" size="12" pos="75" show="open5gs-amf0" value="6f70656e3567732d616d6630"/>
                  </field>
                </field>
              </field>
              <field name="" show="Item 1: id-ServedGUAMIList" size="12" pos="87" value="00600008000099f907020040">
                <field name="ngap.ProtocolIE_Field_element" showname="ProtocolIE-Field" size="12" pos="87" show="" value="">
                  <field name="ngap.id" showname="id: id-ServedGUAMIList (96)" size="2" pos="87" show="96" value="0060"/>
                  <field name="per.enum_index" showname="Enumerated Index: 0" hide="yes" size="1" pos="89" show="0" value="00"/>
                  <field name="ngap.criticality" showname="criticality: reject (0)" size="1" pos="89" show="0" value="00"/>
                  <field name="per.open_type_length" showname="Open Type Length: 8" hide="yes" size="1" pos="90" show="8" value="08"/>
                  <field name="ngap.value_element" showname="value" size="8" pos="91" show="" value="">
                    <field name="per.sequence_of_length" showname="Sequence-Of Length: 1" hide="yes" size="1" pos="91" show="1" value="00"/>
                    <field name="ngap.ServedGUAMIList" showname="ServedGUAMIList: 1 item" size="7" pos="92" show="1" value="0099f907020040">
                      <field name="" show="Item 0" size="7" pos="92" value="0099f907020040">
                        <field name="ngap.ServedGUAMIItem_element" showname="ServedGUAMIItem" size="7" pos="92" show="" value="">
                          <field name="per.extension_bit" showname="0... .... Extension Bit: False" hide="yes" size="1" pos="92" show="0" value="0" unmaskedvalue="00"/>
                          <field name="per.optional_field_bit" showname=".0.. .... Optional Field Bit: False (backupAMFName is NOT present)" hide="yes" size="1" pos="92" show="0" value="0" unmaskedvalue="00"/>
                          <field name="per.optional_field_bit" showname="..0. .... Optional Field Bit: False (iE-Extensions is NOT present)" hide="yes" size="1" pos="92" show="0" value="0" unmaskedvalue="00"/>
                          <field name="ngap.gUAMI_element" showname="gUAMI" size="7" pos="92" show="" value="">
                            <field name="per.extension_bit" showname="...0 .... Extension Bit: False" hide="yes" size="1" pos="92" show="0" value="0" unmaskedvalue="00"/>
                            <field name="per.optional_field_bit" showname=".... 0... Optional Field Bit: False (iE-Extensions is NOT present)" hide="yes" size="1" pos="92" show="0" value="0" unmaskedvalue="00"/>
                            <field name="ngap.pLMNIdentity" showname="pLMNIdentity: 99f907" size="3" pos="93" show="99:f9:07" value="99f907">
                              <field name="e212.guami.mcc" showname="Mobile Country Code (MCC): Private network (999)" size="2" pos="93" show="999" value="99f9"/>
                              <field name="e212.guami.mnc" showname="Mobile Network Code (MNC): Unknown (70)" size="2" pos="94" show="70" value="f907"/>
                            </field>
                            <field name="ngap.aMFRegionID" showname="aMFRegionID: 02 [bit length 8, 0000 0010 decimal value 2]" size="1" pos="96" show="02" value="02"/>
                            <field name="ngap.aMFSetID" showname="aMFSetID: 0040 [bit length 10, 6 LSB pad bits, 0000 0000  01.. .... decimal value 1]" size="2" pos="92" show="00:40" value="0040"/>
                            <field name="ngap.aMFPointer" showname="aMFPointer: 00 [bit length 6, 2 LSB pad bits, 0000 00.. decimal value 0]" size="1" pos="92" show="00" value="00"/>
                          </field>
                        </field>
                      </field>
                    </field>
                  </field>
                </field>
              </field>
              <field name="" show="Item 2: id-RelativeAMFCapacity" size="5" pos="99" value="00564001ff">
                <field name="ngap.ProtocolIE_Field_element" showname="ProtocolIE-Field" size="5" pos="99" show="" value="">
                  <field name="ngap.id" showname="id: id-RelativeAMFCapacity (86)" size="2" pos="99" show="86" value="0056"/>
                  <field name="per.enum_index" showname="Enumerated Index: 1" hide="yes" size="1" pos="101" show="1" value="40"/>
                  <field name="ngap.criticality" showname="criticality: ignore (1)" size="1" pos="101" show="1" value="40"/>
                  <field name="per.open_type_length" showname="Open Type Length: 1" hide="yes" size="1" pos="102" show="1" value="01"/>
                  <field name="ngap.value_element" showname="value" size="1" pos="103" show="" value="">
                    <field name="ngap.RelativeAMFCapacity" showname="RelativeAMFCapacity: 255" size="1" pos="103" show="255" value="ff"/>
                  </field>
                </field>
              </field>
              <field name="" show="Item 3: id-PLMNSupportList" size="12" pos="104" value="005000080099f90700000008">
                <field name="ngap.ProtocolIE_Field_element" showname="ProtocolIE-Field" size="12" pos="104" show="" value="">
                  <field name="ngap.id" showname="id: id-PLMNSupportList (80)" size="2" pos="104" show="80" value="0050"/>
                  <field name="per.enum_index" showname="Enumerated Index: 0" hide="yes" size="1" pos="106" show="0" value="00"/>
                  <field name="ngap.criticality" showname="criticality: reject (0)" size="1" pos="106" show="0" value="00"/>
                  <field name="per.open_type_length" showname="Open Type Length: 8" hide="yes" size="1" pos="107" show="8" value="08"/>
                  <field name="ngap.value_element" showname="value" size="8" pos="108" show="" value="">
                    <field name="per.sequence_of_length" showname="Sequence-Of Length: 1" hide="yes" size="1" pos="108" show="1" value="00"/>
                    <field name="ngap.PLMNSupportList" showname="PLMNSupportList: 1 item" size="7" pos="108" show="1" value="0099f907000000">
                      <field name="" show="Item 0" size="7" pos="108" value="0099f907000000">
                        <field name="ngap.PLMNSupportItem_element" showname="PLMNSupportItem" size="7" pos="108" show="" value="">
                          <field name="per.extension_bit" showname=".... 0... Extension Bit: False" hide="yes" size="1" pos="108" show="0" value="0" unmaskedvalue="00"/>
                          <field name="per.optional_field_bit" showname=".... .0.. Optional Field Bit: False (iE-Extensions is NOT present)" hide="yes" size="1" pos="108" show="0" value="0" unmaskedvalue="00"/>
                          <field name="ngap.pLMNIdentity" showname="pLMNIdentity: 99f907" size="3" pos="109" show="99:f9:07" value="99f907">
                            <field name="e212.mcc" showname="Mobile Country Code (MCC): Private network (999)" size="2" pos="109" show="999" value="99f9"/>
                            <field name="e212.mnc" showname="Mobile Network Code (MNC): Unknown (70)" size="2" pos="110" show="70" value="f907"/>
                          </field>
                          <field name="per.sequence_of_length" showname="Sequence-Of Length: 1" hide="yes" size="2" pos="112" show="1" value="0000"/>
                          <field name="ngap.sliceSupportList" showname="sliceSupportList: 1 item" size="1" pos="114" show="1" value="00">
                            <field name="" show="Item 0" size="1" pos="114" value="00">
                              <field name="ngap.SliceSupportItem_element" showname="SliceSupportItem" size="1" pos="114" show="" value="">
                                <field name="per.extension_bit" showname="0... .... Extension Bit: False" hide="yes" size="1" pos="114" show="0" value="0" unmaskedvalue="00"/>
                                <field name="per.optional_field_bit" showname=".0.. .... Optional Field Bit: False (iE-Extensions is NOT present)" hide="yes" size="1" pos="114" show="0" value="0" unmaskedvalue="00"/>
                                <field name="ngap.s_NSSAI_element" showname="s-NSSAI" size="1" pos="114" show="" value="">
                                  <field name="per.extension_bit" showname="..0. .... Extension Bit: False" hide="yes" size="1" pos="114" show="0" value="0" unmaskedvalue="00"/>
                                  <field name="per.optional_field_bit" showname="...0 .... Optional Field Bit: False (sD is NOT present)" hide="yes" size="1" pos="114" show="0" value="0" unmaskedvalue="00"/>
                                  <field name="per.optional_field_bit" showname=".... 0... Optional Field Bit: False (iE-Extensions is NOT present)" hide="yes" size="1" pos="114" show="0" value="0" unmaskedvalue="00"/>
                                  <field name="ngap.sST" showname="sST: 01" size="1" pos="114" show="01" value="01"/>
                                </field>
                              </field>
                            </field>
                          </field>
                        </field>
                      </field>
                    </field>
                  </field>
                </field>
              </field>
            </field>
          </field>
        </field>
      </field>
    </field>
  </proto>
</packet>


<packet>
  <proto name="geninfo" pos="0" showname="General information" size="138">
    <field name="num" pos="0" show="15" showname="Number" value="f" size="138"/>
    <field name="len" pos="0" show="138" showname="Frame Length" value="8a" size="138"/>
    <field name="caplen" pos="0" show="138" showname="Captured Length" value="8a" size="138"/>
    <field name="timestamp" pos="0" show="Apr  4, 2024 12:26:47.966410000 IST" showname="Captured Time" value="1712213807.966410000" size="138"/>
  </proto>
  <proto name="frame" showname="Frame 15: 138 bytes on wire (1104 bits), 138 bytes captured (1104 bits) on interface bridge104, id 0" size="138" pos="0">
    <field name="filtered" value="frame" />
  </proto>
  <proto name="eth" showname="Ethernet II, Src: 00:1c:42:45:12:08, Dst: 00:1c:42:16:da:82" size="14" pos="0">
    <field name="filtered" value="eth" />
  </proto>
  <proto name="ip" showname="Internet Protocol Version 4, Src: 192.168.56.120, Dst: 192.168.56.100" size="20" pos="14">
    <field name="filtered" value="ip" />
  </proto>
  <proto name="sctp" showname="Stream Control Transmission Protocol, Src Port: 59338 (59338), Dst Port: 38412 (38412)" size="28" pos="34">
    <field name="filtered" value="sctp" />
  </proto>
  <proto name="ngap" showname="NG Application Protocol (InitialUEMessage)" size="76" pos="62">
    <field name="per.extension_bit" showname="0... .... Extension Bit: False" hide="yes" size="1" pos="62" show="0" value="0" unmaskedvalue="00"/>
    <field name="per.choice_index" showname="Choice Index: 0" hide="yes" size="1" pos="62" show="0" value="00"/>
    <field name="ngap.NGAP_PDU" showname="NGAP-PDU: initiatingMessage (0)" size="76" pos="62" show="0" value="000f40480000050055000200010026001a197e004179000d0199f9070000000000000000102e04f0f0f0f0007900135099f907000000010099f907000001e9b8cdaf005a4001180070400100">
      <field name="ngap.initiatingMessage_element" showname="initiatingMessage" size="76" pos="62" show="" value="">
        <field name="ngap.procedureCode" showname="procedureCode: id-InitialUEMessage (15)" size="1" pos="63" show="15" value="0f"/>
        <field name="per.enum_index" showname="Enumerated Index: 1" hide="yes" size="1" pos="64" show="1" value="40"/>
        <field name="ngap.criticality" showname="criticality: ignore (1)" size="1" pos="64" show="1" value="40"/>
        <field name="per.open_type_length" showname="Open Type Length: 72" hide="yes" size="1" pos="65" show="72" value="48"/>
        <field name="ngap.value_element" showname="value" size="72" pos="66" show="" value="">
          <field name="ngap.InitialUEMessage_element" showname="InitialUEMessage" size="72" pos="66" show="" value="">
            <field name="per.extension_bit" showname="0... .... Extension Bit: False" hide="yes" size="1" pos="66" show="0" value="0" unmaskedvalue="00"/>
            <field name="per.sequence_of_length" showname="Sequence-Of Length: 5" hide="yes" size="2" pos="67" show="5" value="0005"/>
            <field name="ngap.protocolIEs" showname="protocolIEs: 5 items" size="69" pos="69" show="5" value="0055000200010026001a197e004179000d0199f9070000000000000000102e04f0f0f0f0007900135099f907000000010099f907000001e9b8cdaf005a4001180070400100">
              <field name="" show="Item 0: id-RAN-UE-NGAP-ID" size="6" pos="69" value="005500020001">
                <field name="ngap.ProtocolIE_Field_element" showname="ProtocolIE-Field" size="6" pos="69" show="" value="">
                  <field name="ngap.id" showname="id: id-RAN-UE-NGAP-ID (85)" size="2" pos="69" show="85" value="0055"/>
                  <field name="per.enum_index" showname="Enumerated Index: 0" hide="yes" size="1" pos="71" show="0" value="00"/>
                  <field name="ngap.criticality" showname="criticality: reject (0)" size="1" pos="71" show="0" value="00"/>
                  <field name="per.open_type_length" showname="Open Type Length: 2" hide="yes" size="1" pos="72" show="2" value="02"/>
                  <field name="ngap.value_element" showname="value" size="2" pos="73" show="" value="">
                    <field name="ngap.RAN_UE_NGAP_ID" showname="RAN-UE-NGAP-ID: 1" size="2" pos="73" show="1" value="0001"/>
                  </field>
                </field>
              </field>
              <field name="" show="Item 1: id-NAS-PDU" size="30" pos="75" value="0026001a197e004179000d0199f9070000000000000000102e04f0f0f0f0">
                <field name="ngap.ProtocolIE_Field_element" showname="ProtocolIE-Field" size="30" pos="75" show="" value="">
                  <field name="ngap.id" showname="id: id-NAS-PDU (38)" size="2" pos="75" show="38" value="0026"/>
                  <field name="per.enum_index" showname="Enumerated Index: 0" hide="yes" size="1" pos="77" show="0" value="00"/>
                  <field name="ngap.criticality" showname="criticality: reject (0)" size="1" pos="77" show="0" value="00"/>
                  <field name="per.open_type_length" showname="Open Type Length: 26" hide="yes" size="1" pos="78" show="26" value="1a"/>
                  <field name="ngap.value_element" showname="value" size="26" pos="79" show="" value="">
                    <field name="per.octet_string_length" showname="Octet String Length: 25" hide="yes" size="1" pos="79" show="25" value="19"/>
                    <field name="ngap.NAS_PDU" showname="NAS-PDU: 7e004179000d0199f9070000000000000000102e04f0f0f0f0" size="25" pos="80" show="7e:00:41:79:00:0d:01:99:f9:07:00:00:00:00:00:00:00:00:10:2e:04:f0:f0:f0:f0" value="7e004179000d0199f9070000000000000000102e04f0f0f0f0">
                      <proto name="nas-5gs" showname="Non-Access-Stratum 5GS (NAS)PDU" size="25" pos="80">
                        <field name="" show="Plain NAS 5GS Message" size="25" pos="80" value="7e004179000d0199f9070000000000000000102e04f0f0f0f0">
                          <field name="nas_5gs.epd" showname="Extended protocol discriminator: 5G mobility management messages (126)" size="1" pos="80" show="126" value="7e"/>
                          <field name="nas_5gs.spare_half_octet" showname="0000 .... = Spare Half Octet: 0" size="1" pos="81" show="0" value="0" unmaskedvalue="00"/>
                          <field name="nas_5gs.security_header_type" showname=".... 0000 = Security header type: Plain NAS message, not security protected (0)" size="1" pos="81" show="0" value="0" unmaskedvalue="00"/>
                          <field name="nas_5gs.mm.message_type" showname="Message type: Registration request (0x41)" size="1" pos="82" show="0x41" value="41"/>
                          <field name="" show="5GS registration type" size="1" pos="83" value="79">
                            <field name="nas_5gs.mm.for" showname=".... 1... = Follow-On Request bit (FOR): Follow-on request pending" size="1" pos="83" show="1" value="1" unmaskedvalue="79"/>
                            <field name="nas_5gs.mm.5gs_reg_type" showname=".... .001 = 5GS registration type: initial registration (1)" size="1" pos="83" show="1" value="1" unmaskedvalue="79"/>
                          </field>
                          <field name="" show="NAS key set identifier" size="1" pos="83" value="79">
                            <field name="nas_5gs.mm.tsc.h1" showname="0... .... = Type of security context flag (TSC): Native security context (for KSIAMF)" size="1" pos="83" show="0" value="0" unmaskedvalue="79"/>
                            <field name="nas_5gs.mm.nas_key_set_id.h1" showname=".111 .... = NAS key set identifier: 7" size="1" pos="83" show="7" value="7" unmaskedvalue="79"/>
                          </field>
                          <field name="" show="5GS mobile identity" size="15" pos="84" value="000d0199f907000000000000000010">
                            <field name="gsm_a.len" showname="Length: 13" size="2" pos="84" show="13" value="000d"/>
                            <field name="nas_5gs.spare_b7" showname="0... .... = Spare: 0" size="1" pos="86" show="0" value="0" unmaskedvalue="01"/>
                            <field name="nas_5gs.mm.suci.supi_fmt" showname=".000 .... = SUPI format: IMSI (0)" size="1" pos="86" show="0" value="0" unmaskedvalue="01"/>
                            <field name="nas_5gs.spare_b3" showname=".... 0... = Spare: 0" size="1" pos="86" show="0" value="0" unmaskedvalue="01"/>
                            <field name="nas_5gs.mm.type_id" showname=".... .001 = Type of identity: SUCI (1)" size="1" pos="86" show="1" value="1" unmaskedvalue="01"/>
                            <field name="e212.mcc" showname="Mobile Country Code (MCC): Private network (999)" size="2" pos="87" show="999" value="99f9"/>
                            <field name="e212.mnc" showname="Mobile Network Code (MNC): Unknown (70)" size="2" pos="88" show="70" value="f907"/>
                            <field name="nas_5gs.mm.suci.routing_indicator" showname="Routing indicator: 0000" size="2" pos="90" show="0000" value="0000"/>
                            <field name="nas_5gs.mm.suci.scheme_id" showname=".... 0000 = Protection scheme Id: NULL scheme (0)" size="1" pos="92" show="0" value="0" unmaskedvalue="00"/>
                            <field name="nas_5gs.mm.suci.pki" showname="Home network public key identifier: 0" size="1" pos="93" show="0" value="00"/>
                            <field name="nas_5gs.mm.suci.msin" showname="MSIN: 0000000001" size="5" pos="94" show="0000000001" value="0000000010"/>
                          </field>
                          <field name="" show="UE security capability" size="6" pos="99" value="2e04f0f0f0f0">
                            <field name="nas_5gs.mm.elem_id" showname="Element ID: 0x2e" size="1" pos="99" show="0x2e" value="2e"/>
                            <field name="gsm_a.len" showname="Length: 4" size="1" pos="100" show="4" value="04"/>
                            <field name="nas_5gs.mm.5g_ea0" showname="1... .... = 5G-EA0: Supported" size="1" pos="101" show="1" value="1" unmaskedvalue="f0"/>
                            <field name="nas_5gs.mm.128_5g_ea1" showname=".1.. .... = 128-5G-EA1: Supported" size="1" pos="101" show="1" value="1" unmaskedvalue="f0"/>
                            <field name="nas_5gs.mm.128_5g_ea2" showname="..1. .... = 128-5G-EA2: Supported" size="1" pos="101" show="1" value="1" unmaskedvalue="f0"/>
                            <field name="nas_5gs.mm.128_5g_ea3" showname="...1 .... = 128-5G-EA3: Supported" size="1" pos="101" show="1" value="1" unmaskedvalue="f0"/>
                            <field name="nas_5gs.mm.5g_ea4" showname=".... 0... = 5G-EA4: Not supported" size="1" pos="101" show="0" value="0" unmaskedvalue="f0"/>
                            <field name="nas_5gs.mm.5g_ea5" showname=".... .0.. = 5G-EA5: Not supported" size="1" pos="101" show="0" value="0" unmaskedvalue="f0"/>
                            <field name="nas_5gs.mm.5g_ea6" showname=".... ..0. = 5G-EA6: Not supported" size="1" pos="101" show="0" value="0" unmaskedvalue="f0"/>
                            <field name="nas_5gs.mm.5g_ea7" showname=".... ...0 = 5G-EA7: Not supported" size="1" pos="101" show="0" value="0" unmaskedvalue="f0"/>
                            <field name="nas_5gs.mm.ia0" showname="1... .... = 5G-IA0: Supported" size="1" pos="102" show="1" value="1" unmaskedvalue="f0"/>
                            <field name="nas_5gs.mm.5g_128_ia1" showname=".1.. .... = 128-5G-IA1: Supported" size="1" pos="102" show="1" value="1" unmaskedvalue="f0"/>
                            <field name="nas_5gs.mm.5g_128_ia2" showname="..1. .... = 128-5G-IA2: Supported" size="1" pos="102" show="1" value="1" unmaskedvalue="f0"/>
                            <field name="nas_5gs.mm.5g_128_ia3" showname="...1 .... = 128-5G-IA3: Supported" size="1" pos="102" show="1" value="1" unmaskedvalue="f0"/>
                            <field name="nas_5gs.mm.5g_128_ia4" showname=".... 0... = 5G-IA4: Not supported" size="1" pos="102" show="0" value="0" unmaskedvalue="f0"/>
                            <field name="nas_5gs.mm.5g_ia5" showname=".... .0.. = 5G-IA5: Not supported" size="1" pos="102" show="0" value="0" unmaskedvalue="f0"/>
                            <field name="nas_5gs.mm.5g_ia6" showname=".... ..0. = 5G-IA6: Not supported" size="1" pos="102" show="0" value="0" unmaskedvalue="f0"/>
                            <field name="nas_5gs.mm.5g_ia7" showname=".... ...0 = 5G-IA7: Not supported" size="1" pos="102" show="0" value="0" unmaskedvalue="f0"/>
                            <field name="nas_5gs.mm.eea0" showname="1... .... = EEA0: Supported" size="1" pos="103" show="1" value="1" unmaskedvalue="f0"/>
                            <field name="nas_5gs.mm.128eea1" showname=".1.. .... = 128-EEA1: Supported" size="1" pos="103" show="1" value="1" unmaskedvalue="f0"/>
                            <field name="nas_5gs.mm.128eea2" showname="..1. .... = 128-EEA2: Supported" size="1" pos="103" show="1" value="1" unmaskedvalue="f0"/>
                            <field name="nas_5gs.mm.eea3" showname="...1 .... = 128-EEA3: Supported" size="1" pos="103" show="1" value="1" unmaskedvalue="f0"/>
                            <field name="nas_5gs.mm.eea4" showname=".... 0... = EEA4: Not supported" size="1" pos="103" show="0" value="0" unmaskedvalue="f0"/>
                            <field name="nas_5gs.mm.eea5" showname=".... .0.. = EEA5: Not supported" size="1" pos="103" show="0" value="0" unmaskedvalue="f0"/>
                            <field name="nas_5gs.mm.eea6" showname=".... ..0. = EEA6: Not supported" size="1" pos="103" show="0" value="0" unmaskedvalue="f0"/>
                            <field name="nas_5gs.mm.eea7" showname=".... ...0 = EEA7: Not supported" size="1" pos="103" show="0" value="0" unmaskedvalue="f0"/>
                            <field name="nas_5gs.mm.eia0" showname="1... .... = EIA0: Supported" size="1" pos="104" show="1" value="1" unmaskedvalue="f0"/>
                            <field name="nas_5gs.mm.128eia1" showname=".1.. .... = 128-EIA1: Supported" size="1" pos="104" show="1" value="1" unmaskedvalue="f0"/>
                            <field name="nas_5gs.mm.128eia2" showname="..1. .... = 128-EIA2: Supported" size="1" pos="104" show="1" value="1" unmaskedvalue="f0"/>
                            <field name="nas_5gs.mm.eia3" showname="...1 .... = 128-EIA3: Supported" size="1" pos="104" show="1" value="1" unmaskedvalue="f0"/>
                            <field name="nas_5gs.mm.eia4" showname=".... 0... = EIA4: Not supported" size="1" pos="104" show="0" value="0" unmaskedvalue="f0"/>
                            <field name="nas_5gs.mm.eia5" showname=".... .0.. = EIA5: Not supported" size="1" pos="104" show="0" value="0" unmaskedvalue="f0"/>
                            <field name="nas_5gs.mm.eia6" showname=".... ..0. = EIA6: Not supported" size="1" pos="104" show="0" value="0" unmaskedvalue="f0"/>
                            <field name="nas_5gs.mm.eia7" showname=".... ...0 = EIA7: Not supported" size="1" pos="104" show="0" value="0" unmaskedvalue="f0"/>
                          </field>
                        </field>
                      </proto>
                    </field>
                  </field>
                </field>
              </field>
              <field name="" show="Item 2: id-UserLocationInformation" size="23" pos="105" value="007900135099f907000000010099f907000001e9b8cdaf">
                <field name="ngap.ProtocolIE_Field_element" showname="ProtocolIE-Field" size="23" pos="105" show="" value="">
                  <field name="ngap.id" showname="id: id-UserLocationInformation (121)" size="2" pos="105" show="121" value="0079"/>
                  <field name="per.enum_index" showname="Enumerated Index: 0" hide="yes" size="1" pos="107" show="0" value="00"/>
                  <field name="ngap.criticality" showname="criticality: reject (0)" size="1" pos="107" show="0" value="00"/>
                  <field name="per.open_type_length" showname="Open Type Length: 19" hide="yes" size="1" pos="108" show="19" value="13"/>
                  <field name="ngap.value_element" showname="value" size="19" pos="109" show="" value="">
                    <field name="per.choice_index" showname="Choice Index: 1" hide="yes" size="1" pos="109" show="1" value="50"/>
                    <field name="ngap.UserLocationInformation" showname="UserLocationInformation: userLocationInformationNR (1)" size="19" pos="109" show="1" value="5099f907000000010099f907000001e9b8cdaf">
                      <field name="ngap.userLocationInformationNR_element" showname="userLocationInformationNR" size="19" pos="109" show="" value="">
                        <field name="per.extension_bit" showname="..0. .... Extension Bit: False" hide="yes" size="1" pos="109" show="0" value="0" unmaskedvalue="50"/>
                        <field name="per.optional_field_bit" showname="...1 .... Optional Field Bit: True (timeStamp is present)" hide="yes" size="1" pos="109" show="1" value="1" unmaskedvalue="50"/>
                        <field name="per.optional_field_bit" showname=".... 0... Optional Field Bit: False (iE-Extensions is NOT present)" hide="yes" size="1" pos="109" show="0" value="0" unmaskedvalue="50"/>
                        <field name="ngap.nR_CGI_element" showname="nR-CGI" size="8" pos="109" show="" value="">
                          <field name="per.extension_bit" showname=".... .0.. Extension Bit: False" hide="yes" size="1" pos="109" show="0" value="0" unmaskedvalue="50"/>
                          <field name="per.optional_field_bit" showname=".... ..0. Optional Field Bit: False (iE-Extensions is NOT present)" hide="yes" size="1" pos="109" show="0" value="0" unmaskedvalue="50"/>
                          <field name="ngap.pLMNIdentity" showname="pLMNIdentity: 99f907" size="3" pos="110" show="99:f9:07" value="99f907">
                            <field name="e212.nrcgi.mcc" showname="Mobile Country Code (MCC): Private network (999)" size="2" pos="110" show="999" value="99f9"/>
                            <field name="e212.nrcgi.mnc" showname="Mobile Network Code (MNC): Unknown (70)" size="2" pos="111" show="70" value="f907"/>
                          </field>
                          <field name="ngap.NRCellIdentity" showname="nRCellIdentity: 0x0000000010" size="5" pos="109" show="0x0000000000000010" value="0000000100"/>
                        </field>
                        <field name="ngap.tAI_element" showname="tAI" size="7" pos="117" show="" value="">
                          <field name="per.extension_bit" showname=".... 0... Extension Bit: False" hide="yes" size="1" pos="117" show="0" value="0" unmaskedvalue="00"/>
                          <field name="per.optional_field_bit" showname=".... .0.. Optional Field Bit: False (iE-Extensions is NOT present)" hide="yes" size="1" pos="117" show="0" value="0" unmaskedvalue="00"/>
                          <field name="ngap.pLMNIdentity" showname="pLMNIdentity: 99f907" size="3" pos="118" show="99:f9:07" value="99f907">
                            <field name="e212.5gstai.mcc" showname="Mobile Country Code (MCC): Private network (999)" size="2" pos="118" show="999" value="99f9"/>
                            <field name="e212.5gstai.mnc" showname="Mobile Network Code (MNC): Unknown (70)" size="2" pos="119" show="70" value="f907"/>
                          </field>
                          <field name="ngap.tAC" showname="tAC: 1 (0x000001)" size="3" pos="121" show="1" value="000001"/>
                        </field>
                        <field name="ngap.timeStamp" showname="timeStamp: e9b8cdaf (Apr  4, 2024 06:56:47 UTC)" size="4" pos="124" show="e9:b8:cd:af" value="e9b8cdaf"/>
                      </field>
                    </field>
                  </field>
                </field>
              </field>
              <field name="" show="Item 3: id-RRCEstablishmentCause" size="5" pos="128" value="005a400118">
                <field name="ngap.ProtocolIE_Field_element" showname="ProtocolIE-Field" size="5" pos="128" show="" value="">
                  <field name="ngap.id" showname="id: id-RRCEstablishmentCause (90)" size="2" pos="128" show="90" value="005a"/>
                  <field name="per.enum_index" showname="Enumerated Index: 1" hide="yes" size="1" pos="130" show="1" value="40"/>
                  <field name="ngap.criticality" showname="criticality: ignore (1)" size="1" pos="130" show="1" value="40"/>
                  <field name="per.open_type_length" showname="Open Type Length: 1" hide="yes" size="1" pos="131" show="1" value="01"/>
                  <field name="ngap.value_element" showname="value" size="1" pos="132" show="" value="">
                    <field name="per.extension_present_bit" showname="0... .... Extension Present Bit: False" hide="yes" size="1" pos="132" show="0" value="0" unmaskedvalue="18"/>
                    <field name="per.enum_index" showname="Enumerated Index: 3" hide="yes" size="1" pos="132" show="3" value="18"/>
                    <field name="ngap.RRCEstablishmentCause" showname="RRCEstablishmentCause: mo-Signalling (3)" size="1" pos="132" show="3" value="18"/>
                  </field>
                </field>
              </field>
              <field name="" show="Item 4: id-UEContextRequest" size="5" pos="133" value="0070400100">
                <field name="ngap.ProtocolIE_Field_element" showname="ProtocolIE-Field" size="5" pos="133" show="" value="">
                  <field name="ngap.id" showname="id: id-UEContextRequest (112)" size="2" pos="133" show="112" value="0070"/>
                  <field name="per.enum_index" showname="Enumerated Index: 1" hide="yes" size="1" pos="135" show="1" value="40"/>
                  <field name="ngap.criticality" showname="criticality: ignore (1)" size="1" pos="135" show="1" value="40"/>
                  <field name="per.open_type_length" showname="Open Type Length: 1" hide="yes" size="1" pos="136" show="1" value="01"/>
                  <field name="ngap.value_element" showname="value" size="1" pos="137" show="" value="">
                    <field name="per.extension_present_bit" showname="0... .... Extension Present Bit: False" hide="yes" size="1" pos="137" show="0" value="0" unmaskedvalue="00"/>
                    <field name="per.enum_index" showname="Enumerated Index: 0" hide="yes" size="0" pos="137" show="0"/>
                    <field name="ngap.UEContextRequest" showname="UEContextRequest: requested (0)" size="1" pos="137" show="0" value="00"/>
                  </field>
                </field>
              </field>
            </field>
          </field>
        </field>
      </field>
    </field>
  </proto>
</packet>


<packet>
  <proto name="geninfo" pos="0" showname="General information" size="146">
    <field name="num" pos="0" show="16" showname="Number" value="10" size="146"/>
    <field name="len" pos="0" show="146" showname="Frame Length" value="92" size="146"/>
    <field name="caplen" pos="0" show="146" showname="Captured Length" value="92" size="146"/>
    <field name="timestamp" pos="0" show="Apr  4, 2024 12:26:47.990538000 IST" showname="Captured Time" value="1712213807.990538000" size="146"/>
  </proto>
  <proto name="frame" showname="Frame 16: 146 bytes on wire (1168 bits), 146 bytes captured (1168 bits) on interface bridge104, id 0" size="146" pos="0">
    <field name="filtered" value="frame" />
  </proto>
  <proto name="eth" showname="Ethernet II, Src: 00:1c:42:16:da:82, Dst: 00:1c:42:45:12:08" size="14" pos="0">
    <field name="filtered" value="eth" />
  </proto>
  <proto name="ip" showname="Internet Protocol Version 4, Src: 192.168.56.100, Dst: 192.168.56.120" size="20" pos="14">
    <field name="filtered" value="ip" />
  </proto>
  <proto name="sctp" showname="Stream Control Transmission Protocol, Src Port: 38412 (38412), Dst Port: 59338 (59338)" size="44" pos="34">
    <field name="filtered" value="sctp" />
  </proto>
  <proto name="ngap" showname="NG Application Protocol (DownlinkNASTransport)" size="66" pos="78">
    <field name="per.extension_bit" showname="0... .... Extension Bit: False" hide="yes" size="1" pos="78" show="0" value="0" unmaskedvalue="00"/>
    <field name="per.choice_index" showname="Choice Index: 0" hide="yes" size="1" pos="78" show="0" value="00"/>
    <field name="ngap.NGAP_PDU" showname="NGAP-PDU: initiatingMessage (0)" size="66" pos="78" show="0" value="0004403e000003000a000200040055000200010026002b2a7e005600020000212cfdebf2296762eea563d1fbda64088520100159c42d148b80009cb13a9dd7b19f7b">
      <field name="ngap.initiatingMessage_element" showname="initiatingMessage" size="66" pos="78" show="" value="">
        <field name="ngap.procedureCode" showname="procedureCode: id-DownlinkNASTransport (4)" size="1" pos="79" show="4" value="04"/>
        <field name="per.enum_index" showname="Enumerated Index: 1" hide="yes" size="1" pos="80" show="1" value="40"/>
        <field name="ngap.criticality" showname="criticality: ignore (1)" size="1" pos="80" show="1" value="40"/>
        <field name="per.open_type_length" showname="Open Type Length: 62" hide="yes" size="1" pos="81" show="62" value="3e"/>
        <field name="ngap.value_element" showname="value" size="62" pos="82" show="" value="">
          <field name="ngap.DownlinkNASTransport_element" showname="DownlinkNASTransport" size="62" pos="82" show="" value="">
            <field name="per.extension_bit" showname="0... .... Extension Bit: False" hide="yes" size="1" pos="82" show="0" value="0" unmaskedvalue="00"/>
            <field name="per.sequence_of_length" showname="Sequence-Of Length: 3" hide="yes" size="2" pos="83" show="3" value="0003"/>
            <field name="ngap.protocolIEs" showname="protocolIEs: 3 items" size="59" pos="85" show="3" value="000a000200040055000200010026002b2a7e005600020000212cfdebf2296762eea563d1fbda64088520100159c42d148b80009cb13a9dd7b19f7b">
              <field name="" show="Item 0: id-AMF-UE-NGAP-ID" size="6" pos="85" value="000a00020004">
                <field name="ngap.ProtocolIE_Field_element" showname="ProtocolIE-Field" size="6" pos="85" show="" value="">
                  <field name="ngap.id" showname="id: id-AMF-UE-NGAP-ID (10)" size="2" pos="85" show="10" value="000a"/>
                  <field name="per.enum_index" showname="Enumerated Index: 0" hide="yes" size="1" pos="87" show="0" value="00"/>
                  <field name="ngap.criticality" showname="criticality: reject (0)" size="1" pos="87" show="0" value="00"/>
                  <field name="per.open_type_length" showname="Open Type Length: 2" hide="yes" size="1" pos="88" show="2" value="02"/>
                  <field name="ngap.value_element" showname="value" size="2" pos="89" show="" value="">
                    <field name="ngap.AMF_UE_NGAP_ID" showname="AMF-UE-NGAP-ID: 4" size="2" pos="89" show="4" value="0004"/>
                  </field>
                </field>
              </field>
              <field name="" show="Item 1: id-RAN-UE-NGAP-ID" size="6" pos="91" value="005500020001">
                <field name="ngap.ProtocolIE_Field_element" showname="ProtocolIE-Field" size="6" pos="91" show="" value="">
                  <field name="ngap.id" showname="id: id-RAN-UE-NGAP-ID (85)" size="2" pos="91" show="85" value="0055"/>
                  <field name="per.enum_index" showname="Enumerated Index: 0" hide="yes" size="1" pos="93" show="0" value="00"/>
                  <field name="ngap.criticality" showname="criticality: reject (0)" size="1" pos="93" show="0" value="00"/>
                  <field name="per.open_type_length" showname="Open Type Length: 2" hide="yes" size="1" pos="94" show="2" value="02"/>
                  <field name="ngap.value_element" showname="value" size="2" pos="95" show="" value="">
                    <field name="ngap.RAN_UE_NGAP_ID" showname="RAN-UE-NGAP-ID: 1" size="2" pos="95" show="1" value="0001"/>
                  </field>
                </field>
              </field>
              <field name="" show="Item 2: id-NAS-PDU" size="47" pos="97" value="0026002b2a7e005600020000212cfdebf2296762eea563d1fbda64088520100159c42d148b80009cb13a9dd7b19f7b">
                <field name="ngap.ProtocolIE_Field_element" showname="ProtocolIE-Field" size="47" pos="97" show="" value="">
                  <field name="ngap.id" showname="id: id-NAS-PDU (38)" size="2" pos="97" show="38" value="0026"/>
                  <field name="per.enum_index" showname="Enumerated Index: 0" hide="yes" size="1" pos="99" show="0" value="00"/>
                  <field name="ngap.criticality" showname="criticality: reject (0)" size="1" pos="99" show="0" value="00"/>
                  <field name="per.open_type_length" showname="Open Type Length: 43" hide="yes" size="1" pos="100" show="43" value="2b"/>
                  <field name="ngap.value_element" showname="value" size="43" pos="101" show="" value="">
                    <field name="per.octet_string_length" showname="Octet String Length: 42" hide="yes" size="1" pos="101" show="42" value="2a"/>
                    <field name="ngap.NAS_PDU" showname="NAS-PDU: 7e005600020000212cfdebf2296762eea563d1fbda64088520100159c42d148b80009cb1" size="42" pos="102" show="7e:00:56:00:02:00:00:21:2c:fd:eb:f2:29:67:62:ee:a5:63:d1:fb:da:64:08:85:20:10:01:59:c4:2d:14:8b:80:00:9c:b1:3a:9d:d7:b1:9f:7b" value="7e005600020000212cfdebf2296762eea563d1fbda64088520100159c42d148b80009cb13a9dd7b19f7b">
                      <proto name="nas-5gs" showname="Non-Access-Stratum 5GS (NAS)PDU" size="42" pos="102">
                        <field name="" show="Plain NAS 5GS Message" size="42" pos="102" value="7e005600020000212cfdebf2296762eea563d1fbda64088520100159c42d148b80009cb13a9dd7b19f7b">
                          <field name="nas_5gs.epd" showname="Extended protocol discriminator: 5G mobility management messages (126)" size="1" pos="102" show="126" value="7e"/>
                          <field name="nas_5gs.spare_half_octet" showname="0000 .... = Spare Half Octet: 0" size="1" pos="103" show="0" value="0" unmaskedvalue="00"/>
                          <field name="nas_5gs.security_header_type" showname=".... 0000 = Security header type: Plain NAS message, not security protected (0)" size="1" pos="103" show="0" value="0" unmaskedvalue="00"/>
                          <field name="nas_5gs.mm.message_type" showname="Message type: Authentication request (0x56)" size="1" pos="104" show="0x56" value="56"/>
                          <field name="nas_5gs.spare_half_octet" showname="0000 .... = Spare Half Octet: 0" size="1" pos="105" show="0" value="0" unmaskedvalue="00"/>
                          <field name="" show="NAS key set identifier - ngKSI" size="1" pos="105" value="00">
                            <field name="nas_5gs.mm.tsc" showname=".... 0... = Type of security context flag (TSC): Native security context (for KSIAMF)" size="1" pos="105" show="0" value="0" unmaskedvalue="00"/>
                            <field name="nas_5gs.mm.nas_key_set_id" showname=".... .000 = NAS key set identifier: 0" size="1" pos="105" show="0" value="0" unmaskedvalue="00"/>
                          </field>
                          <field name="" show="ABBA" size="3" pos="106" value="020000">
                            <field name="gsm_a.len" showname="Length: 2" size="1" pos="106" show="2" value="02"/>
                            <field name="nas_5gs.mm.abba_contents" showname="ABBA Contents: 0000" size="2" pos="107" show="00:00" value="0000"/>
                          </field>
                          <field name="" show="Authentication Parameter RAND - 5G authentication challenge" size="17" pos="109" value="212cfdebf2296762eea563d1fbda640885">
                            <field name="gsm_a.dtap.elem_id" showname="Element ID: 0x21" size="1" pos="109" show="0x21" value="21"/>
                            <field name="gsm_a.dtap.rand" showname="RAND value: 2cfdebf2296762eea563d1fbda640885" size="16" pos="110" show="2c:fd:eb:f2:29:67:62:ee:a5:63:d1:fb:da:64:08:85" value="2cfdebf2296762eea563d1fbda640885"/>
                          </field>
                          <field name="" show="Authentication Parameter AUTN (UMTS and EPS authentication challenge) - 5G authentication challenge" size="18" pos="126" value="20100159c42d148b80009cb13a9dd7b19f7b">
                            <field name="gsm_a.dtap.elem_id" showname="Element ID: 0x20" size="1" pos="126" show="0x20" value="20"/>
                            <field name="gsm_a.len" showname="Length: 16" size="1" pos="127" show="16" value="10"/>
                            <field name="gsm_a.dtap.autn" showname="AUTN value: 0159c42d148b80009cb13a9dd7b19f7b" size="16" pos="128" show="01:59:c4:2d:14:8b:80:00:9c:b1:3a:9d:d7:b1:9f:7b" value="0159c42d148b80009cb13a9dd7b19f7b">
                              <field name="gsm_a.dtap.autn.sqn_xor_ak" showname="SQN xor AK: 0159c42d148b" size="6" pos="128" show="01:59:c4:2d:14:8b" value="0159c42d148b"/>
                              <field name="gsm_a.dtap.autn.amf" showname="AMF: 8000" size="2" pos="134" show="80:00" value="8000"/>
                              <field name="gsm_a.dtap.autn.mac" showname="MAC: 9cb13a9dd7b19f7b" size="8" pos="136" show="9c:b1:3a:9d:d7:b1:9f:7b" value="9cb13a9dd7b19f7b"/>
                            </field>
                          </field>
                        </field>
                      </proto>
                    </field>
                  </field>
                </field>
              </field>
            </field>
          </field>
        </field>
      </field>
    </field>
  </proto>
</packet>


<packet>
  <proto name="geninfo" pos="0" showname="General information" size="146">
    <field name="num" pos="0" show="17" showname="Number" value="11" size="146"/>
    <field name="len" pos="0" show="146" showname="Frame Length" value="92" size="146"/>
    <field name="caplen" pos="0" show="146" showname="Captured Length" value="92" size="146"/>
    <field name="timestamp" pos="0" show="Apr  4, 2024 12:26:47.991515000 IST" showname="Captured Time" value="1712213807.991515000" size="146"/>
  </proto>
  <proto name="frame" showname="Frame 17: 146 bytes on wire (1168 bits), 146 bytes captured (1168 bits) on interface bridge104, id 0" size="146" pos="0">
    <field name="filtered" value="frame" />
  </proto>
  <proto name="eth" showname="Ethernet II, Src: 00:1c:42:45:12:08, Dst: 00:1c:42:16:da:82" size="14" pos="0">
    <field name="filtered" value="eth" />
  </proto>
  <proto name="ip" showname="Internet Protocol Version 4, Src: 192.168.56.120, Dst: 192.168.56.100" size="20" pos="14">
    <field name="filtered" value="ip" />
  </proto>
  <proto name="sctp" showname="Stream Control Transmission Protocol, Src Port: 59338 (59338), Dst Port: 38412 (38412)" size="44" pos="34">
    <field name="filtered" value="sctp" />
  </proto>
  <proto name="ngap" showname="NG Application Protocol (UplinkNASTransport)" size="67" pos="78">
    <field name="per.extension_bit" showname="0... .... Extension Bit: False" hide="yes" size="1" pos="78" show="0" value="0" unmaskedvalue="00"/>
    <field name="per.choice_index" showname="Choice Index: 0" hide="yes" size="1" pos="78" show="0" value="00"/>
    <field name="ngap.NGAP_PDU" showname="NGAP-PDU: initiatingMessage (0)" size="67" pos="78" show="0" value="002e403f000004000a0002000400550002000100260015147e005915300ec4bef5eec75fc88c11dedc993778007940135099f907000000010099f907000001e9b8cdaf">
      <field name="ngap.initiatingMessage_element" showname="initiatingMessage" size="67" pos="78" show="" value="">
        <field name="ngap.procedureCode" showname="procedureCode: id-UplinkNASTransport (46)" size="1" pos="79" show="46" value="2e"/>
        <field name="per.enum_index" showname="Enumerated Index: 1" hide="yes" size="1" pos="80" show="1" value="40"/>
        <field name="ngap.criticality" showname="criticality: ignore (1)" size="1" pos="80" show="1" value="40"/>
        <field name="per.open_type_length" showname="Open Type Length: 63" hide="yes" size="1" pos="81" show="63" value="3f"/>
        <field name="ngap.value_element" showname="value" size="63" pos="82" show="" value="">
          <field name="ngap.UplinkNASTransport_element" showname="UplinkNASTransport" size="63" pos="82" show="" value="">
            <field name="per.extension_bit" showname="0... .... Extension Bit: False" hide="yes" size="1" pos="82" show="0" value="0" unmaskedvalue="00"/>
            <field name="per.sequence_of_length" showname="Sequence-Of Length: 4" hide="yes" size="2" pos="83" show="4" value="0004"/>
            <field name="ngap.protocolIEs" showname="protocolIEs: 4 items" size="60" pos="85" show="4" value="000a0002000400550002000100260015147e005915300ec4bef5eec75fc88c11dedc993778007940135099f907000000010099f907000001e9b8cdaf">
              <field name="" show="Item 0: id-AMF-UE-NGAP-ID" size="6" pos="85" value="000a00020004">
                <field name="ngap.ProtocolIE_Field_element" showname="ProtocolIE-Field" size="6" pos="85" show="" value="">
                  <field name="ngap.id" showname="id: id-AMF-UE-NGAP-ID (10)" size="2" pos="85" show="10" value="000a"/>
                  <field name="per.enum_index" showname="Enumerated Index: 0" hide="yes" size="1" pos="87" show="0" value="00"/>
                  <field name="ngap.criticality" showname="criticality: reject (0)" size="1" pos="87" show="0" value="00"/>
                  <field name="per.open_type_length" showname="Open Type Length: 2" hide="yes" size="1" pos="88" show="2" value="02"/>
                  <field name="ngap.value_element" showname="value" size="2" pos="89" show="" value="">
                    <field name="ngap.AMF_UE_NGAP_ID" showname="AMF-UE-NGAP-ID: 4" size="2" pos="89" show="4" value="0004"/>
                  </field>
                </field>
              </field>
              <field name="" show="Item 1: id-RAN-UE-NGAP-ID" size="6" pos="91" value="005500020001">
                <field name="ngap.ProtocolIE_Field_element" showname="ProtocolIE-Field" size="6" pos="91" show="" value="">
                  <field name="ngap.id" showname="id: id-RAN-UE-NGAP-ID (85)" size="2" pos="91" show="85" value="0055"/>
                  <field name="per.enum_index" showname="Enumerated Index: 0" hide="yes" size="1" pos="93" show="0" value="00"/>
                  <field name="ngap.criticality" showname="criticality: reject (0)" size="1" pos="93" show="0" value="00"/>
                  <field name="per.open_type_length" showname="Open Type Length: 2" hide="yes" size="1" pos="94" show="2" value="02"/>
                  <field name="ngap.value_element" showname="value" size="2" pos="95" show="" value="">
                    <field name="ngap.RAN_UE_NGAP_ID" showname="RAN-UE-NGAP-ID: 1" size="2" pos="95" show="1" value="0001"/>
                  </field>
                </field>
              </field>
              <field name="" show="Item 2: id-NAS-PDU" size="25" pos="97" value="00260015147e005915300ec4bef5eec75fc88c11dedc993778">
                <field name="ngap.ProtocolIE_Field_element" showname="ProtocolIE-Field" size="25" pos="97" show="" value="">
                  <field name="ngap.id" showname="id: id-NAS-PDU (38)" size="2" pos="97" show="38" value="0026"/>
                  <field name="per.enum_index" showname="Enumerated Index: 0" hide="yes" size="1" pos="99" show="0" value="00"/>
                  <field name="ngap.criticality" showname="criticality: reject (0)" size="1" pos="99" show="0" value="00"/>
                  <field name="per.open_type_length" showname="Open Type Length: 21" hide="yes" size="1" pos="100" show="21" value="15"/>
                  <field name="ngap.value_element" showname="value" size="21" pos="101" show="" value="">
                    <field name="per.octet_string_length" showname="Octet String Length: 20" hide="yes" size="1" pos="101" show="20" value="14"/>
                    <field name="ngap.NAS_PDU" showname="NAS-PDU: 7e005915300ec4bef5eec75fc88c11dedc993778" size="20" pos="102" show="7e:00:59:15:30:0e:c4:be:f5:ee:c7:5f:c8:8c:11:de:dc:99:37:78" value="7e005915300ec4bef5eec75fc88c11dedc993778">
                      <proto name="nas-5gs" showname="Non-Access-Stratum 5GS (NAS)PDU" size="20" pos="102">
                        <field name="" show="Plain NAS 5GS Message" size="20" pos="102" value="7e005915300ec4bef5eec75fc88c11dedc993778">
                          <field name="nas_5gs.epd" showname="Extended protocol discriminator: 5G mobility management messages (126)" size="1" pos="102" show="126" value="7e"/>
                          <field name="nas_5gs.spare_half_octet" showname="0000 .... = Spare Half Octet: 0" size="1" pos="103" show="0" value="0" unmaskedvalue="00"/>
                          <field name="nas_5gs.security_header_type" showname=".... 0000 = Security header type: Plain NAS message, not security protected (0)" size="1" pos="103" show="0" value="0" unmaskedvalue="00"/>
                          <field name="nas_5gs.mm.message_type" showname="Message type: Authentication failure (0x59)" size="1" pos="104" show="0x59" value="59"/>
                          <field name="" show="5GMM cause" size="1" pos="105" value="15">
                            <field name="nas_5gs.mm.5gmm_cause" showname="5GMM cause: Synch failure (21)" size="1" pos="105" show="21" value="15"/>
                          </field>
                          <field name="" show="Authentication Failure Parameter (UMTS and EPS authentication challenge)" size="16" pos="106" value="300ec4bef5eec75fc88c11dedc993778">
                            <field name="gsm_a.dtap.elem_id" showname="Element ID: 0x30" size="1" pos="106" show="0x30" value="30"/>
                            <field name="gsm_a.len" showname="Length: 14" size="1" pos="107" show="14" value="0e"/>
                            <field name="gsm_a.dtap.auts" showname="AUTS value: c4bef5eec75fc88c11dedc993778" size="14" pos="108" show="c4:be:f5:ee:c7:5f:c8:8c:11:de:dc:99:37:78" value="c4bef5eec75fc88c11dedc993778">
                              <field name="gsm_a.dtap.auts.sqn_ms_xor_ak" showname="SQN_MS xor AK: c4bef5eec75f" size="6" pos="108" show="c4:be:f5:ee:c7:5f" value="c4bef5eec75f"/>
                              <field name="gsm_a.dtap.auts.mac_s" showname="MAC-S: c88c11dedc993778" size="8" pos="114" show="c8:8c:11:de:dc:99:37:78" value="c88c11dedc993778"/>
                            </field>
                          </field>
                        </field>
                      </proto>
                    </field>
                  </field>
                </field>
              </field>
              <field name="" show="Item 3: id-UserLocationInformation" size="23" pos="122" value="007940135099f907000000010099f907000001e9b8cdaf">
                <field name="ngap.ProtocolIE_Field_element" showname="ProtocolIE-Field" size="23" pos="122" show="" value="">
                  <field name="ngap.id" showname="id: id-UserLocationInformation (121)" size="2" pos="122" show="121" value="0079"/>
                  <field name="per.enum_index" showname="Enumerated Index: 1" hide="yes" size="1" pos="124" show="1" value="40"/>
                  <field name="ngap.criticality" showname="criticality: ignore (1)" size="1" pos="124" show="1" value="40"/>
                  <field name="per.open_type_length" showname="Open Type Length: 19" hide="yes" size="1" pos="125" show="19" value="13"/>
                  <field name="ngap.value_element" showname="value" size="19" pos="126" show="" value="">
                    <field name="per.choice_index" showname="Choice Index: 1" hide="yes" size="1" pos="126" show="1" value="50"/>
                    <field name="ngap.UserLocationInformation" showname="UserLocationInformation: userLocationInformationNR (1)" size="19" pos="126" show="1" value="5099f907000000010099f907000001e9b8cdaf">
                      <field name="ngap.userLocationInformationNR_element" showname="userLocationInformationNR" size="19" pos="126" show="" value="">
                        <field name="per.extension_bit" showname="..0. .... Extension Bit: False" hide="yes" size="1" pos="126" show="0" value="0" unmaskedvalue="50"/>
                        <field name="per.optional_field_bit" showname="...1 .... Optional Field Bit: True (timeStamp is present)" hide="yes" size="1" pos="126" show="1" value="1" unmaskedvalue="50"/>
                        <field name="per.optional_field_bit" showname=".... 0... Optional Field Bit: False (iE-Extensions is NOT present)" hide="yes" size="1" pos="126" show="0" value="0" unmaskedvalue="50"/>
                        <field name="ngap.nR_CGI_element" showname="nR-CGI" size="8" pos="126" show="" value="">
                          <field name="per.extension_bit" showname=".... .0.. Extension Bit: False" hide="yes" size="1" pos="126" show="0" value="0" unmaskedvalue="50"/>
                          <field name="per.optional_field_bit" showname=".... ..0. Optional Field Bit: False (iE-Extensions is NOT present)" hide="yes" size="1" pos="126" show="0" value="0" unmaskedvalue="50"/>
                          <field name="ngap.pLMNIdentity" showname="pLMNIdentity: 99f907" size="3" pos="127" show="99:f9:07" value="99f907">
                            <field name="e212.nrcgi.mcc" showname="Mobile Country Code (MCC): Private network (999)" size="2" pos="127" show="999" value="99f9"/>
                            <field name="e212.nrcgi.mnc" showname="Mobile Network Code (MNC): Unknown (70)" size="2" pos="128" show="70" value="f907"/>
                          </field>
                          <field name="ngap.NRCellIdentity" showname="nRCellIdentity: 0x0000000010" size="5" pos="126" show="0x0000000000000010" value="0000000100"/>
                        </field>
                        <field name="ngap.tAI_element" showname="tAI" size="7" pos="134" show="" value="">
                          <field name="per.extension_bit" showname=".... 0... Extension Bit: False" hide="yes" size="1" pos="134" show="0" value="0" unmaskedvalue="00"/>
                          <field name="per.optional_field_bit" showname=".... .0.. Optional Field Bit: False (iE-Extensions is NOT present)" hide="yes" size="1" pos="134" show="0" value="0" unmaskedvalue="00"/>
                          <field name="ngap.pLMNIdentity" showname="pLMNIdentity: 99f907" size="3" pos="135" show="99:f9:07" value="99f907">
                            <field name="e212.5gstai.mcc" showname="Mobile Country Code (MCC): Private network (999)" size="2" pos="135" show="999" value="99f9"/>
                            <field name="e212.5gstai.mnc" showname="Mobile Network Code (MNC): Unknown (70)" size="2" pos="136" show="70" value="f907"/>
                          </field>
                          <field name="ngap.tAC" showname="tAC: 1 (0x000001)" size="3" pos="138" show="1" value="000001"/>
                        </field>
                        <field name="ngap.timeStamp" showname="timeStamp: e9b8cdaf (Apr  4, 2024 06:56:47 UTC)" size="4" pos="141" show="e9:b8:cd:af" value="e9b8cdaf"/>
                      </field>
                    </field>
                  </field>
                </field>
              </field>
            </field>
          </field>
        </field>
      </field>
    </field>
  </proto>
</packet>


<packet>
  <proto name="geninfo" pos="0" showname="General information" size="146">
    <field name="num" pos="0" show="18" showname="Number" value="12" size="146"/>
    <field name="len" pos="0" show="146" showname="Frame Length" value="92" size="146"/>
    <field name="caplen" pos="0" show="146" showname="Captured Length" value="92" size="146"/>
    <field name="timestamp" pos="0" show="Apr  4, 2024 12:26:47.995326000 IST" showname="Captured Time" value="1712213807.995326000" size="146"/>
  </proto>
  <proto name="frame" showname="Frame 18: 146 bytes on wire (1168 bits), 146 bytes captured (1168 bits) on interface bridge104, id 0" size="146" pos="0">
    <field name="filtered" value="frame" />
  </proto>
  <proto name="eth" showname="Ethernet II, Src: 00:1c:42:16:da:82, Dst: 00:1c:42:45:12:08" size="14" pos="0">
    <field name="filtered" value="eth" />
  </proto>
  <proto name="ip" showname="Internet Protocol Version 4, Src: 192.168.56.100, Dst: 192.168.56.120" size="20" pos="14">
    <field name="filtered" value="ip" />
  </proto>
  <proto name="sctp" showname="Stream Control Transmission Protocol, Src Port: 38412 (38412), Dst Port: 59338 (59338)" size="44" pos="34">
    <field name="filtered" value="sctp" />
  </proto>
  <proto name="ngap" showname="NG Application Protocol (DownlinkNASTransport)" size="66" pos="78">
    <field name="per.extension_bit" showname="0... .... Extension Bit: False" hide="yes" size="1" pos="78" show="0" value="0" unmaskedvalue="00"/>
    <field name="per.choice_index" showname="Choice Index: 0" hide="yes" size="1" pos="78" show="0" value="00"/>
    <field name="ngap.NGAP_PDU" showname="NGAP-PDU: initiatingMessage (0)" size="66" pos="78" show="0" value="0004403e000003000a000200040055000200010026002b2a7e00560102000021826a3cfd81bb25ba2fb0639e067c9b6420109ab7dbd597dc8000f38714f1e5a51d50">
      <field name="ngap.initiatingMessage_element" showname="initiatingMessage" size="66" pos="78" show="" value="">
        <field name="ngap.procedureCode" showname="procedureCode: id-DownlinkNASTransport (4)" size="1" pos="79" show="4" value="04"/>
        <field name="per.enum_index" showname="Enumerated Index: 1" hide="yes" size="1" pos="80" show="1" value="40"/>
        <field name="ngap.criticality" showname="criticality: ignore (1)" size="1" pos="80" show="1" value="40"/>
        <field name="per.open_type_length" showname="Open Type Length: 62" hide="yes" size="1" pos="81" show="62" value="3e"/>
        <field name="ngap.value_element" showname="value" size="62" pos="82" show="" value="">
          <field name="ngap.DownlinkNASTransport_element" showname="DownlinkNASTransport" size="62" pos="82" show="" value="">
            <field name="per.extension_bit" showname="0... .... Extension Bit: False" hide="yes" size="1" pos="82" show="0" value="0" unmaskedvalue="00"/>
            <field name="per.sequence_of_length" showname="Sequence-Of Length: 3" hide="yes" size="2" pos="83" show="3" value="0003"/>
            <field name="ngap.protocolIEs" showname="protocolIEs: 3 items" size="59" pos="85" show="3" value="000a000200040055000200010026002b2a7e00560102000021826a3cfd81bb25ba2fb0639e067c9b6420109ab7dbd597dc8000f38714f1e5a51d50">
              <field name="" show="Item 0: id-AMF-UE-NGAP-ID" size="6" pos="85" value="000a00020004">
                <field name="ngap.ProtocolIE_Field_element" showname="ProtocolIE-Field" size="6" pos="85" show="" value="">
                  <field name="ngap.id" showname="id: id-AMF-UE-NGAP-ID (10)" size="2" pos="85" show="10" value="000a"/>
                  <field name="per.enum_index" showname="Enumerated Index: 0" hide="yes" size="1" pos="87" show="0" value="00"/>
                  <field name="ngap.criticality" showname="criticality: reject (0)" size="1" pos="87" show="0" value="00"/>
                  <field name="per.open_type_length" showname="Open Type Length: 2" hide="yes" size="1" pos="88" show="2" value="02"/>
                  <field name="ngap.value_element" showname="value" size="2" pos="89" show="" value="">
                    <field name="ngap.AMF_UE_NGAP_ID" showname="AMF-UE-NGAP-ID: 4" size="2" pos="89" show="4" value="0004"/>
                  </field>
                </field>
              </field>
              <field name="" show="Item 1: id-RAN-UE-NGAP-ID" size="6" pos="91" value="005500020001">
                <field name="ngap.ProtocolIE_Field_element" showname="ProtocolIE-Field" size="6" pos="91" show="" value="">
                  <field name="ngap.id" showname="id: id-RAN-UE-NGAP-ID (85)" size="2" pos="91" show="85" value="0055"/>
                  <field name="per.enum_index" showname="Enumerated Index: 0" hide="yes" size="1" pos="93" show="0" value="00"/>
                  <field name="ngap.criticality" showname="criticality: reject (0)" size="1" pos="93" show="0" value="00"/>
                  <field name="per.open_type_length" showname="Open Type Length: 2" hide="yes" size="1" pos="94" show="2" value="02"/>
                  <field name="ngap.value_element" showname="value" size="2" pos="95" show="" value="">
                    <field name="ngap.RAN_UE_NGAP_ID" showname="RAN-UE-NGAP-ID: 1" size="2" pos="95" show="1" value="0001"/>
                  </field>
                </field>
              </field>
              <field name="" show="Item 2: id-NAS-PDU" size="47" pos="97" value="0026002b2a7e00560102000021826a3cfd81bb25ba2fb0639e067c9b6420109ab7dbd597dc8000f38714f1e5a51d50">
                <field name="ngap.ProtocolIE_Field_element" showname="ProtocolIE-Field" size="47" pos="97" show="" value="">
                  <field name="ngap.id" showname="id: id-NAS-PDU (38)" size="2" pos="97" show="38" value="0026"/>
                  <field name="per.enum_index" showname="Enumerated Index: 0" hide="yes" size="1" pos="99" show="0" value="00"/>
                  <field name="ngap.criticality" showname="criticality: reject (0)" size="1" pos="99" show="0" value="00"/>
                  <field name="per.open_type_length" showname="Open Type Length: 43" hide="yes" size="1" pos="100" show="43" value="2b"/>
                  <field name="ngap.value_element" showname="value" size="43" pos="101" show="" value="">
                    <field name="per.octet_string_length" showname="Octet String Length: 42" hide="yes" size="1" pos="101" show="42" value="2a"/>
                    <field name="ngap.NAS_PDU" showname="NAS-PDU: 7e00560102000021826a3cfd81bb25ba2fb0639e067c9b6420109ab7dbd597dc8000f387" size="42" pos="102" show="7e:00:56:01:02:00:00:21:82:6a:3c:fd:81:bb:25:ba:2f:b0:63:9e:06:7c:9b:64:20:10:9a:b7:db:d5:97:dc:80:00:f3:87:14:f1:e5:a5:1d:50" value="7e00560102000021826a3cfd81bb25ba2fb0639e067c9b6420109ab7dbd597dc8000f38714f1e5a51d50">
                      <proto name="nas-5gs" showname="Non-Access-Stratum 5GS (NAS)PDU" size="42" pos="102">
                        <field name="" show="Plain NAS 5GS Message" size="42" pos="102" value="7e00560102000021826a3cfd81bb25ba2fb0639e067c9b6420109ab7dbd597dc8000f38714f1e5a51d50">
                          <field name="nas_5gs.epd" showname="Extended protocol discriminator: 5G mobility management messages (126)" size="1" pos="102" show="126" value="7e"/>
                          <field name="nas_5gs.spare_half_octet" showname="0000 .... = Spare Half Octet: 0" size="1" pos="103" show="0" value="0" unmaskedvalue="00"/>
                          <field name="nas_5gs.security_header_type" showname=".... 0000 = Security header type: Plain NAS message, not security protected (0)" size="1" pos="103" show="0" value="0" unmaskedvalue="00"/>
                          <field name="nas_5gs.mm.message_type" showname="Message type: Authentication request (0x56)" size="1" pos="104" show="0x56" value="56"/>
                          <field name="nas_5gs.spare_half_octet" showname="0000 .... = Spare Half Octet: 0" size="1" pos="105" show="0" value="0" unmaskedvalue="01"/>
                          <field name="" show="NAS key set identifier - ngKSI" size="1" pos="105" value="01">
                            <field name="nas_5gs.mm.tsc" showname=".... 0... = Type of security context flag (TSC): Native security context (for KSIAMF)" size="1" pos="105" show="0" value="0" unmaskedvalue="01"/>
                            <field name="nas_5gs.mm.nas_key_set_id" showname=".... .001 = NAS key set identifier: 1" size="1" pos="105" show="1" value="1" unmaskedvalue="01"/>
                          </field>
                          <field name="" show="ABBA" size="3" pos="106" value="020000">
                            <field name="gsm_a.len" showname="Length: 2" size="1" pos="106" show="2" value="02"/>
                            <field name="nas_5gs.mm.abba_contents" showname="ABBA Contents: 0000" size="2" pos="107" show="00:00" value="0000"/>
                          </field>
                          <field name="" show="Authentication Parameter RAND - 5G authentication challenge" size="17" pos="109" value="21826a3cfd81bb25ba2fb0639e067c9b64">
                            <field name="gsm_a.dtap.elem_id" showname="Element ID: 0x21" size="1" pos="109" show="0x21" value="21"/>
                            <field name="gsm_a.dtap.rand" showname="RAND value: 826a3cfd81bb25ba2fb0639e067c9b64" size="16" pos="110" show="82:6a:3c:fd:81:bb:25:ba:2f:b0:63:9e:06:7c:9b:64" value="826a3cfd81bb25ba2fb0639e067c9b64"/>
                          </field>
                          <field name="" show="Authentication Parameter AUTN (UMTS and EPS authentication challenge) - 5G authentication challenge" size="18" pos="126" value="20109ab7dbd597dc8000f38714f1e5a51d50">
                            <field name="gsm_a.dtap.elem_id" showname="Element ID: 0x20" size="1" pos="126" show="0x20" value="20"/>
                            <field name="gsm_a.len" showname="Length: 16" size="1" pos="127" show="16" value="10"/>
                            <field name="gsm_a.dtap.autn" showname="AUTN value: 9ab7dbd597dc8000f38714f1e5a51d50" size="16" pos="128" show="9a:b7:db:d5:97:dc:80:00:f3:87:14:f1:e5:a5:1d:50" value="9ab7dbd597dc8000f38714f1e5a51d50">
                              <field name="gsm_a.dtap.autn.sqn_xor_ak" showname="SQN xor AK: 9ab7dbd597dc" size="6" pos="128" show="9a:b7:db:d5:97:dc" value="9ab7dbd597dc"/>
                              <field name="gsm_a.dtap.autn.amf" showname="AMF: 8000" size="2" pos="134" show="80:00" value="8000"/>
                              <field name="gsm_a.dtap.autn.mac" showname="MAC: f38714f1e5a51d50" size="8" pos="136" show="f3:87:14:f1:e5:a5:1d:50" value="f38714f1e5a51d50"/>
                            </field>
                          </field>
                        </field>
                      </proto>
                    </field>
                  </field>
                </field>
              </field>
            </field>
          </field>
        </field>
      </field>
    </field>
  </proto>
</packet>


<packet>
  <proto name="geninfo" pos="0" showname="General information" size="146">
    <field name="num" pos="0" show="19" showname="Number" value="13" size="146"/>
    <field name="len" pos="0" show="146" showname="Frame Length" value="92" size="146"/>
    <field name="caplen" pos="0" show="146" showname="Captured Length" value="92" size="146"/>
    <field name="timestamp" pos="0" show="Apr  4, 2024 12:26:47.996005000 IST" showname="Captured Time" value="1712213807.996005000" size="146"/>
  </proto>
  <proto name="frame" showname="Frame 19: 146 bytes on wire (1168 bits), 146 bytes captured (1168 bits) on interface bridge104, id 0" size="146" pos="0">
    <field name="filtered" value="frame" />
  </proto>
  <proto name="eth" showname="Ethernet II, Src: 00:1c:42:45:12:08, Dst: 00:1c:42:16:da:82" size="14" pos="0">
    <field name="filtered" value="eth" />
  </proto>
  <proto name="ip" showname="Internet Protocol Version 4, Src: 192.168.56.120, Dst: 192.168.56.100" size="20" pos="14">
    <field name="filtered" value="ip" />
  </proto>
  <proto name="sctp" showname="Stream Control Transmission Protocol, Src Port: 59338 (59338), Dst Port: 38412 (38412)" size="44" pos="34">
    <field name="filtered" value="sctp" />
  </proto>
  <proto name="ngap" showname="NG Application Protocol (UplinkNASTransport)" size="68" pos="78">
    <field name="per.extension_bit" showname="0... .... Extension Bit: False" hide="yes" size="1" pos="78" show="0" value="0" unmaskedvalue="00"/>
    <field name="per.choice_index" showname="Choice Index: 0" hide="yes" size="1" pos="78" show="0" value="00"/>
    <field name="ngap.NGAP_PDU" showname="NGAP-PDU: initiatingMessage (0)" size="68" pos="78" show="0" value="002e4040000004000a0002000400550002000100260016157e00572d105a77798c442a0dc32cf4eb3279b4f2b7007940135099f907000000010099f907000001e9b8cdaf">
      <field name="ngap.initiatingMessage_element" showname="initiatingMessage" size="68" pos="78" show="" value="">
        <field name="ngap.procedureCode" showname="procedureCode: id-UplinkNASTransport (46)" size="1" pos="79" show="46" value="2e"/>
        <field name="per.enum_index" showname="Enumerated Index: 1" hide="yes" size="1" pos="80" show="1" value="40"/>
        <field name="ngap.criticality" showname="criticality: ignore (1)" size="1" pos="80" show="1" value="40"/>
        <field name="per.open_type_length" showname="Open Type Length: 64" hide="yes" size="1" pos="81" show="64" value="40"/>
        <field name="ngap.value_element" showname="value" size="64" pos="82" show="" value="">
          <field name="ngap.UplinkNASTransport_element" showname="UplinkNASTransport" size="64" pos="82" show="" value="">
            <field name="per.extension_bit" showname="0... .... Extension Bit: False" hide="yes" size="1" pos="82" show="0" value="0" unmaskedvalue="00"/>
            <field name="per.sequence_of_length" showname="Sequence-Of Length: 4" hide="yes" size="2" pos="83" show="4" value="0004"/>
            <field name="ngap.protocolIEs" showname="protocolIEs: 4 items" size="61" pos="85" show="4" value="000a0002000400550002000100260016157e00572d105a77798c442a0dc32cf4eb3279b4f2b7007940135099f907000000010099f907000001e9b8cdaf">
              <field name="" show="Item 0: id-AMF-UE-NGAP-ID" size="6" pos="85" value="000a00020004">
                <field name="ngap.ProtocolIE_Field_element" showname="ProtocolIE-Field" size="6" pos="85" show="" value="">
                  <field name="ngap.id" showname="id: id-AMF-UE-NGAP-ID (10)" size="2" pos="85" show="10" value="000a"/>
                  <field name="per.enum_index" showname="Enumerated Index: 0" hide="yes" size="1" pos="87" show="0" value="00"/>
                  <field name="ngap.criticality" showname="criticality: reject (0)" size="1" pos="87" show="0" value="00"/>
                  <field name="per.open_type_length" showname="Open Type Length: 2" hide="yes" size="1" pos="88" show="2" value="02"/>
                  <field name="ngap.value_element" showname="value" size="2" pos="89" show="" value="">
                    <field name="ngap.AMF_UE_NGAP_ID" showname="AMF-UE-NGAP-ID: 4" size="2" pos="89" show="4" value="0004"/>
                  </field>
                </field>
              </field>
              <field name="" show="Item 1: id-RAN-UE-NGAP-ID" size="6" pos="91" value="005500020001">
                <field name="ngap.ProtocolIE_Field_element" showname="ProtocolIE-Field" size="6" pos="91" show="" value="">
                  <field name="ngap.id" showname="id: id-RAN-UE-NGAP-ID (85)" size="2" pos="91" show="85" value="0055"/>
                  <field name="per.enum_index" showname="Enumerated Index: 0" hide="yes" size="1" pos="93" show="0" value="00"/>
                  <field name="ngap.criticality" showname="criticality: reject (0)" size="1" pos="93" show="0" value="00"/>
                  <field name="per.open_type_length" showname="Open Type Length: 2" hide="yes" size="1" pos="94" show="2" value="02"/>
                  <field name="ngap.value_element" showname="value" size="2" pos="95" show="" value="">
                    <field name="ngap.RAN_UE_NGAP_ID" showname="RAN-UE-NGAP-ID: 1" size="2" pos="95" show="1" value="0001"/>
                  </field>
                </field>
              </field>
              <field name="" show="Item 2: id-NAS-PDU" size="26" pos="97" value="00260016157e00572d105a77798c442a0dc32cf4eb3279b4f2b7">
                <field name="ngap.ProtocolIE_Field_element" showname="ProtocolIE-Field" size="26" pos="97" show="" value="">
                  <field name="ngap.id" showname="id: id-NAS-PDU (38)" size="2" pos="97" show="38" value="0026"/>
                  <field name="per.enum_index" showname="Enumerated Index: 0" hide="yes" size="1" pos="99" show="0" value="00"/>
                  <field name="ngap.criticality" showname="criticality: reject (0)" size="1" pos="99" show="0" value="00"/>
                  <field name="per.open_type_length" showname="Open Type Length: 22" hide="yes" size="1" pos="100" show="22" value="16"/>
                  <field name="ngap.value_element" showname="value" size="22" pos="101" show="" value="">
                    <field name="per.octet_string_length" showname="Octet String Length: 21" hide="yes" size="1" pos="101" show="21" value="15"/>
                    <field name="ngap.NAS_PDU" showname="NAS-PDU: 7e00572d105a77798c442a0dc32cf4eb3279b4f2b7" size="21" pos="102" show="7e:00:57:2d:10:5a:77:79:8c:44:2a:0d:c3:2c:f4:eb:32:79:b4:f2:b7" value="7e00572d105a77798c442a0dc32cf4eb3279b4f2b7">
                      <proto name="nas-5gs" showname="Non-Access-Stratum 5GS (NAS)PDU" size="21" pos="102">
                        <field name="" show="Plain NAS 5GS Message" size="21" pos="102" value="7e00572d105a77798c442a0dc32cf4eb3279b4f2b7">
                          <field name="nas_5gs.epd" showname="Extended protocol discriminator: 5G mobility management messages (126)" size="1" pos="102" show="126" value="7e"/>
                          <field name="nas_5gs.spare_half_octet" showname="0000 .... = Spare Half Octet: 0" size="1" pos="103" show="0" value="0" unmaskedvalue="00"/>
                          <field name="nas_5gs.security_header_type" showname=".... 0000 = Security header type: Plain NAS message, not security protected (0)" size="1" pos="103" show="0" value="0" unmaskedvalue="00"/>
                          <field name="nas_5gs.mm.message_type" showname="Message type: Authentication response (0x57)" size="1" pos="104" show="0x57" value="57"/>
                          <field name="" show="Authentication response parameter" size="18" pos="105" value="2d105a77798c442a0dc32cf4eb3279b4f2b7">
                            <field name="nas_eps.emm.elem_id" showname="Element ID: 0x2d" size="1" pos="105" show="0x2d" value="2d"/>
                            <field name="gsm_a.len" showname="Length: 16" size="1" pos="106" show="16" value="10"/>
                            <field name="nas_eps.emm.res" showname="RES: 5a77798c442a0dc32cf4eb3279b4f2b7" size="16" pos="107" show="5a:77:79:8c:44:2a:0d:c3:2c:f4:eb:32:79:b4:f2:b7" value="5a77798c442a0dc32cf4eb3279b4f2b7"/>
                          </field>
                        </field>
                      </proto>
                    </field>
                  </field>
                </field>
              </field>
              <field name="" show="Item 3: id-UserLocationInformation" size="23" pos="123" value="007940135099f907000000010099f907000001e9b8cdaf">
                <field name="ngap.ProtocolIE_Field_element" showname="ProtocolIE-Field" size="23" pos="123" show="" value="">
                  <field name="ngap.id" showname="id: id-UserLocationInformation (121)" size="2" pos="123" show="121" value="0079"/>
                  <field name="per.enum_index" showname="Enumerated Index: 1" hide="yes" size="1" pos="125" show="1" value="40"/>
                  <field name="ngap.criticality" showname="criticality: ignore (1)" size="1" pos="125" show="1" value="40"/>
                  <field name="per.open_type_length" showname="Open Type Length: 19" hide="yes" size="1" pos="126" show="19" value="13"/>
                  <field name="ngap.value_element" showname="value" size="19" pos="127" show="" value="">
                    <field name="per.choice_index" showname="Choice Index: 1" hide="yes" size="1" pos="127" show="1" value="50"/>
                    <field name="ngap.UserLocationInformation" showname="UserLocationInformation: userLocationInformationNR (1)" size="19" pos="127" show="1" value="5099f907000000010099f907000001e9b8cdaf">
                      <field name="ngap.userLocationInformationNR_element" showname="userLocationInformationNR" size="19" pos="127" show="" value="">
                        <field name="per.extension_bit" showname="..0. .... Extension Bit: False" hide="yes" size="1" pos="127" show="0" value="0" unmaskedvalue="50"/>
                        <field name="per.optional_field_bit" showname="...1 .... Optional Field Bit: True (timeStamp is present)" hide="yes" size="1" pos="127" show="1" value="1" unmaskedvalue="50"/>
                        <field name="per.optional_field_bit" showname=".... 0... Optional Field Bit: False (iE-Extensions is NOT present)" hide="yes" size="1" pos="127" show="0" value="0" unmaskedvalue="50"/>
                        <field name="ngap.nR_CGI_element" showname="nR-CGI" size="8" pos="127" show="" value="">
                          <field name="per.extension_bit" showname=".... .0.. Extension Bit: False" hide="yes" size="1" pos="127" show="0" value="0" unmaskedvalue="50"/>
                          <field name="per.optional_field_bit" showname=".... ..0. Optional Field Bit: False (iE-Extensions is NOT present)" hide="yes" size="1" pos="127" show="0" value="0" unmaskedvalue="50"/>
                          <field name="ngap.pLMNIdentity" showname="pLMNIdentity: 99f907" size="3" pos="128" show="99:f9:07" value="99f907">
                            <field name="e212.nrcgi.mcc" showname="Mobile Country Code (MCC): Private network (999)" size="2" pos="128" show="999" value="99f9"/>
                            <field name="e212.nrcgi.mnc" showname="Mobile Network Code (MNC): Unknown (70)" size="2" pos="129" show="70" value="f907"/>
                          </field>
                          <field name="ngap.NRCellIdentity" showname="nRCellIdentity: 0x0000000010" size="5" pos="127" show="0x0000000000000010" value="0000000100"/>
                        </field>
                        <field name="ngap.tAI_element" showname="tAI" size="7" pos="135" show="" value="">
                          <field name="per.extension_bit" showname=".... 0... Extension Bit: False" hide="yes" size="1" pos="135" show="0" value="0" unmaskedvalue="00"/>
                          <field name="per.optional_field_bit" showname=".... .0.. Optional Field Bit: False (iE-Extensions is NOT present)" hide="yes" size="1" pos="135" show="0" value="0" unmaskedvalue="00"/>
                          <field name="ngap.pLMNIdentity" showname="pLMNIdentity: 99f907" size="3" pos="136" show="99:f9:07" value="99f907">
                            <field name="e212.5gstai.mcc" showname="Mobile Country Code (MCC): Private network (999)" size="2" pos="136" show="999" value="99f9"/>
                            <field name="e212.5gstai.mnc" showname="Mobile Network Code (MNC): Unknown (70)" size="2" pos="137" show="70" value="f907"/>
                          </field>
                          <field name="ngap.tAC" showname="tAC: 1 (0x000001)" size="3" pos="139" show="1" value="000001"/>
                        </field>
                        <field name="ngap.timeStamp" showname="timeStamp: e9b8cdaf (Apr  4, 2024 06:56:47 UTC)" size="4" pos="142" show="e9:b8:cd:af" value="e9b8cdaf"/>
                      </field>
                    </field>
                  </field>
                </field>
              </field>
            </field>
          </field>
        </field>
      </field>
    </field>
  </proto>
</packet>


<packet>
  <proto name="geninfo" pos="0" showname="General information" size="126">
    <field name="num" pos="0" show="20" showname="Number" value="14" size="126"/>
    <field name="len" pos="0" show="126" showname="Frame Length" value="7e" size="126"/>
    <field name="caplen" pos="0" show="126" showname="Captured Length" value="7e" size="126"/>
    <field name="timestamp" pos="0" show="Apr  4, 2024 12:26:47.999838000 IST" showname="Captured Time" value="1712213807.999838000" size="126"/>
  </proto>
  <proto name="frame" showname="Frame 20: 126 bytes on wire (1008 bits), 126 bytes captured (1008 bits) on interface bridge104, id 0" size="126" pos="0">
    <field name="filtered" value="frame" />
  </proto>
  <proto name="eth" showname="Ethernet II, Src: 00:1c:42:16:da:82, Dst: 00:1c:42:45:12:08" size="14" pos="0">
    <field name="filtered" value="eth" />
  </proto>
  <proto name="ip" showname="Internet Protocol Version 4, Src: 192.168.56.100, Dst: 192.168.56.120" size="20" pos="14">
    <field name="filtered" value="ip" />
  </proto>
  <proto name="sctp" showname="Stream Control Transmission Protocol, Src Port: 38412 (38412), Dst Port: 59338 (59338)" size="44" pos="34">
    <field name="filtered" value="sctp" />
  </proto>
  <proto name="ngap" showname="NG Application Protocol (DownlinkNASTransport)" size="45" pos="78">
    <field name="per.extension_bit" showname="0... .... Extension Bit: False" hide="yes" size="1" pos="78" show="0" value="0" unmaskedvalue="00"/>
    <field name="per.choice_index" showname="Choice Index: 0" hide="yes" size="1" pos="78" show="0" value="00"/>
    <field name="ngap.NGAP_PDU" showname="NGAP-PDU: initiatingMessage (0)" size="45" pos="78" show="0" value="00044029000003000a0002000400550002000100260016157e0356ef3f97007e005d020104f0f0f0f0e1360102">
      <field name="ngap.initiatingMessage_element" showname="initiatingMessage" size="45" pos="78" show="" value="">
        <field name="ngap.procedureCode" showname="procedureCode: id-DownlinkNASTransport (4)" size="1" pos="79" show="4" value="04"/>
        <field name="per.enum_index" showname="Enumerated Index: 1" hide="yes" size="1" pos="80" show="1" value="40"/>
        <field name="ngap.criticality" showname="criticality: ignore (1)" size="1" pos="80" show="1" value="40"/>
        <field name="per.open_type_length" showname="Open Type Length: 41" hide="yes" size="1" pos="81" show="41" value="29"/>
        <field name="ngap.value_element" showname="value" size="41" pos="82" show="" value="">
          <field name="ngap.DownlinkNASTransport_element" showname="DownlinkNASTransport" size="41" pos="82" show="" value="">
            <field name="per.extension_bit" showname="0... .... Extension Bit: False" hide="yes" size="1" pos="82" show="0" value="0" unmaskedvalue="00"/>
            <field name="per.sequence_of_length" showname="Sequence-Of Length: 3" hide="yes" size="2" pos="83" show="3" value="0003"/>
            <field name="ngap.protocolIEs" showname="protocolIEs: 3 items" size="38" pos="85" show="3" value="000a0002000400550002000100260016157e0356ef3f97007e005d020104f0f0f0f0e1360102">
              <field name="" show="Item 0: id-AMF-UE-NGAP-ID" size="6" pos="85" value="000a00020004">
                <field name="ngap.ProtocolIE_Field_element" showname="ProtocolIE-Field" size="6" pos="85" show="" value="">
                  <field name="ngap.id" showname="id: id-AMF-UE-NGAP-ID (10)" size="2" pos="85" show="10" value="000a"/>
                  <field name="per.enum_index" showname="Enumerated Index: 0" hide="yes" size="1" pos="87" show="0" value="00"/>
                  <field name="ngap.criticality" showname="criticality: reject (0)" size="1" pos="87" show="0" value="00"/>
                  <field name="per.open_type_length" showname="Open Type Length: 2" hide="yes" size="1" pos="88" show="2" value="02"/>
                  <field name="ngap.value_element" showname="value" size="2" pos="89" show="" value="">
                    <field name="ngap.AMF_UE_NGAP_ID" showname="AMF-UE-NGAP-ID: 4" size="2" pos="89" show="4" value="0004"/>
                  </field>
                </field>
              </field>
              <field name="" show="Item 1: id-RAN-UE-NGAP-ID" size="6" pos="91" value="005500020001">
                <field name="ngap.ProtocolIE_Field_element" showname="ProtocolIE-Field" size="6" pos="91" show="" value="">
                  <field name="ngap.id" showname="id: id-RAN-UE-NGAP-ID (85)" size="2" pos="91" show="85" value="0055"/>
                  <field name="per.enum_index" showname="Enumerated Index: 0" hide="yes" size="1" pos="93" show="0" value="00"/>
                  <field name="ngap.criticality" showname="criticality: reject (0)" size="1" pos="93" show="0" value="00"/>
                  <field name="per.open_type_length" showname="Open Type Length: 2" hide="yes" size="1" pos="94" show="2" value="02"/>
                  <field name="ngap.value_element" showname="value" size="2" pos="95" show="" value="">
                    <field name="ngap.RAN_UE_NGAP_ID" showname="RAN-UE-NGAP-ID: 1" size="2" pos="95" show="1" value="0001"/>
                  </field>
                </field>
              </field>
              <field name="" show="Item 2: id-NAS-PDU" size="26" pos="97" value="00260016157e0356ef3f97007e005d020104f0f0f0f0e1360102">
                <field name="ngap.ProtocolIE_Field_element" showname="ProtocolIE-Field" size="26" pos="97" show="" value="">
                  <field name="ngap.id" showname="id: id-NAS-PDU (38)" size="2" pos="97" show="38" value="0026"/>
                  <field name="per.enum_index" showname="Enumerated Index: 0" hide="yes" size="1" pos="99" show="0" value="00"/>
                  <field name="ngap.criticality" showname="criticality: reject (0)" size="1" pos="99" show="0" value="00"/>
                  <field name="per.open_type_length" showname="Open Type Length: 22" hide="yes" size="1" pos="100" show="22" value="16"/>
                  <field name="ngap.value_element" showname="value" size="22" pos="101" show="" value="">
                    <field name="per.octet_string_length" showname="Octet String Length: 21" hide="yes" size="1" pos="101" show="21" value="15"/>
                    <field name="ngap.NAS_PDU" showname="NAS-PDU: 7e0356ef3f97007e005d020104f0f0f0f0e1360102" size="21" pos="102" show="7e:03:56:ef:3f:97:00:7e:00:5d:02:01:04:f0:f0:f0:f0:e1:36:01:02" value="7e0356ef3f97007e005d020104f0f0f0f0e1360102">
                      <proto name="nas-5gs" showname="Non-Access-Stratum 5GS (NAS)PDU" size="21" pos="102">
                        <field name="" show="Security protected NAS 5GS message" size="7" pos="102" value="7e0356ef3f9700">
                          <field name="nas_5gs.epd" showname="Extended protocol discriminator: 5G mobility management messages (126)" size="1" pos="102" show="126" value="7e"/>
                          <field name="nas_5gs.spare_half_octet" showname="0000 .... = Spare Half Octet: 0" size="1" pos="103" show="0" value="0" unmaskedvalue="03"/>
                          <field name="nas_5gs.security_header_type" showname=".... 0011 = Security header type: Integrity protected with new 5GS security context (3)" size="1" pos="103" show="3" value="3" unmaskedvalue="03"/>
                          <field name="nas_5gs.msg_auth_code" showname="Message authentication code: 0x56ef3f97" size="4" pos="104" show="0x56ef3f97" value="56ef3f97"/>
                          <field name="nas_5gs.seq_no" showname="Sequence number: 0" size="1" pos="108" show="0" value="00"/>
                        </field>
                        <field name="" show="Plain NAS 5GS Message" size="14" pos="109" value="7e005d020104f0f0f0f0e1360102">
                          <field name="nas_5gs.epd" showname="Extended protocol discriminator: 5G mobility management messages (126)" size="1" pos="109" show="126" value="7e"/>
                          <field name="nas_5gs.spare_half_octet" showname="0000 .... = Spare Half Octet: 0" size="1" pos="110" show="0" value="0" unmaskedvalue="00"/>
                          <field name="nas_5gs.security_header_type" showname=".... 0000 = Security header type: Plain NAS message, not security protected (0)" size="1" pos="110" show="0" value="0" unmaskedvalue="00"/>
                          <field name="nas_5gs.mm.message_type" showname="Message type: Security mode command (0x5d)" size="1" pos="111" show="0x5d" value="5d"/>
                          <field name="" show="NAS security algorithms" size="1" pos="112" value="02">
                            <field name="nas_5gs.mm.nas_sec_algo_enc" showname="0000 .... = Type of ciphering algorithm: 5G-EA0 (null ciphering algorithm) (0)" size="1" pos="112" show="0" value="0" unmaskedvalue="02"/>
                            <field name="nas_5gs.mm.nas_sec_algo_ip" showname=".... 0010 = Type of integrity protection algorithm: 128-5G-IA2 (2)" size="1" pos="112" show="2" value="2" unmaskedvalue="02"/>
                          </field>
                          <field name="nas_5gs.spare_half_octet" showname="0000 .... = Spare Half Octet: 0" size="1" pos="113" show="0" value="0" unmaskedvalue="01"/>
                          <field name="" show="NAS key set identifier - ngKSI" size="1" pos="113" value="01">
                            <field name="nas_5gs.mm.tsc" showname=".... 0... = Type of security context flag (TSC): Native security context (for KSIAMF)" size="1" pos="113" show="0" value="0" unmaskedvalue="01"/>
                            <field name="nas_5gs.mm.nas_key_set_id" showname=".... .001 = NAS key set identifier: 1" size="1" pos="113" show="1" value="1" unmaskedvalue="01"/>
                          </field>
                          <field name="" show="UE security capability - Replayed UE security capabilities" size="5" pos="114" value="04f0f0f0f0">
                            <field name="gsm_a.len" showname="Length: 4" size="1" pos="114" show="4" value="04"/>
                            <field name="nas_5gs.mm.5g_ea0" showname="1... .... = 5G-EA0: Supported" size="1" pos="115" show="1" value="1" unmaskedvalue="f0"/>
                            <field name="nas_5gs.mm.128_5g_ea1" showname=".1.. .... = 128-5G-EA1: Supported" size="1" pos="115" show="1" value="1" unmaskedvalue="f0"/>
                            <field name="nas_5gs.mm.128_5g_ea2" showname="..1. .... = 128-5G-EA2: Supported" size="1" pos="115" show="1" value="1" unmaskedvalue="f0"/>
                            <field name="nas_5gs.mm.128_5g_ea3" showname="...1 .... = 128-5G-EA3: Supported" size="1" pos="115" show="1" value="1" unmaskedvalue="f0"/>
                            <field name="nas_5gs.mm.5g_ea4" showname=".... 0... = 5G-EA4: Not supported" size="1" pos="115" show="0" value="0" unmaskedvalue="f0"/>
                            <field name="nas_5gs.mm.5g_ea5" showname=".... .0.. = 5G-EA5: Not supported" size="1" pos="115" show="0" value="0" unmaskedvalue="f0"/>
                            <field name="nas_5gs.mm.5g_ea6" showname=".... ..0. = 5G-EA6: Not supported" size="1" pos="115" show="0" value="0" unmaskedvalue="f0"/>
                            <field name="nas_5gs.mm.5g_ea7" showname=".... ...0 = 5G-EA7: Not supported" size="1" pos="115" show="0" value="0" unmaskedvalue="f0"/>
                            <field name="nas_5gs.mm.ia0" showname="1... .... = 5G-IA0: Supported" size="1" pos="116" show="1" value="1" unmaskedvalue="f0"/>
                            <field name="nas_5gs.mm.5g_128_ia1" showname=".1.. .... = 128-5G-IA1: Supported" size="1" pos="116" show="1" value="1" unmaskedvalue="f0"/>
                            <field name="nas_5gs.mm.5g_128_ia2" showname="..1. .... = 128-5G-IA2: Supported" size="1" pos="116" show="1" value="1" unmaskedvalue="f0"/>
                            <field name="nas_5gs.mm.5g_128_ia3" showname="...1 .... = 128-5G-IA3: Supported" size="1" pos="116" show="1" value="1" unmaskedvalue="f0"/>
                            <field name="nas_5gs.mm.5g_128_ia4" showname=".... 0... = 5G-IA4: Not supported" size="1" pos="116" show="0" value="0" unmaskedvalue="f0"/>
                            <field name="nas_5gs.mm.5g_ia5" showname=".... .0.. = 5G-IA5: Not supported" size="1" pos="116" show="0" value="0" unmaskedvalue="f0"/>
                            <field name="nas_5gs.mm.5g_ia6" showname=".... ..0. = 5G-IA6: Not supported" size="1" pos="116" show="0" value="0" unmaskedvalue="f0"/>
                            <field name="nas_5gs.mm.5g_ia7" showname=".... ...0 = 5G-IA7: Not supported" size="1" pos="116" show="0" value="0" unmaskedvalue="f0"/>
                            <field name="nas_5gs.mm.eea0" showname="1... .... = EEA0: Supported" size="1" pos="117" show="1" value="1" unmaskedvalue="f0"/>
                            <field name="nas_5gs.mm.128eea1" showname=".1.. .... = 128-EEA1: Supported" size="1" pos="117" show="1" value="1" unmaskedvalue="f0"/>
                            <field name="nas_5gs.mm.128eea2" showname="..1. .... = 128-EEA2: Supported" size="1" pos="117" show="1" value="1" unmaskedvalue="f0"/>
                            <field name="nas_5gs.mm.eea3" showname="...1 .... = 128-EEA3: Supported" size="1" pos="117" show="1" value="1" unmaskedvalue="f0"/>
                            <field name="nas_5gs.mm.eea4" showname=".... 0... = EEA4: Not supported" size="1" pos="117" show="0" value="0" unmaskedvalue="f0"/>
                            <field name="nas_5gs.mm.eea5" showname=".... .0.. = EEA5: Not supported" size="1" pos="117" show="0" value="0" unmaskedvalue="f0"/>
                            <field name="nas_5gs.mm.eea6" showname=".... ..0. = EEA6: Not supported" size="1" pos="117" show="0" value="0" unmaskedvalue="f0"/>
                            <field name="nas_5gs.mm.eea7" showname=".... ...0 = EEA7: Not supported" size="1" pos="117" show="0" value="0" unmaskedvalue="f0"/>
                            <field name="nas_5gs.mm.eia0" showname="1... .... = EIA0: Supported" size="1" pos="118" show="1" value="1" unmaskedvalue="f0"/>
                            <field name="nas_5gs.mm.128eia1" showname=".1.. .... = 128-EIA1: Supported" size="1" pos="118" show="1" value="1" unmaskedvalue="f0"/>
                            <field name="nas_5gs.mm.128eia2" showname="..1. .... = 128-EIA2: Supported" size="1" pos="118" show="1" value="1" unmaskedvalue="f0"/>
                            <field name="nas_5gs.mm.eia3" showname="...1 .... = 128-EIA3: Supported" size="1" pos="118" show="1" value="1" unmaskedvalue="f0"/>
                            <field name="nas_5gs.mm.eia4" showname=".... 0... = EIA4: Not supported" size="1" pos="118" show="0" value="0" unmaskedvalue="f0"/>
                            <field name="nas_5gs.mm.eia5" showname=".... .0.. = EIA5: Not supported" size="1" pos="118" show="0" value="0" unmaskedvalue="f0"/>
                            <field name="nas_5gs.mm.eia6" showname=".... ..0. = EIA6: Not supported" size="1" pos="118" show="0" value="0" unmaskedvalue="f0"/>
                            <field name="nas_5gs.mm.eia7" showname=".... ...0 = EIA7: Not supported" size="1" pos="118" show="0" value="0" unmaskedvalue="f0"/>
                          </field>
                          <field name="" show="IMEISV request" size="1" pos="119" value="e1">
                            <field name="gsm_a.common.elem_id" showname="1110 .... = Element ID: 0xe-" size="1" pos="119" show="0x0e" value="E" unmaskedvalue="e1"/>
                            <field name="nas_eps.spare_bits" showname=".... 0... = Spare bit(s): 0x00" size="1" pos="119" show="0x00" value="e1"/>
                            <field name="nas_eps.emm.imeisv_req" showname=".... .001 = IMEISV request: IMEISV requested (1)" size="1" pos="119" show="1" value="1" unmaskedvalue="e1"/>
                          </field>
                          <field name="" show="Additional 5G security information" size="3" pos="120" value="360102">
                            <field name="nas_5gs.mm.elem_id" showname="Element ID: 0x36" size="1" pos="120" show="0x36" value="36"/>
                            <field name="gsm_a.len" showname="Length: 1" size="1" pos="121" show="1" value="01"/>
                            <field name="nas_5gs.spare_b7" showname="0... .... = Spare: 0" size="1" pos="122" show="0" value="0" unmaskedvalue="02"/>
                            <field name="nas_5gs.spare_b6" showname=".0.. .... = Spare: 0" size="1" pos="122" show="0" value="0" unmaskedvalue="02"/>
                            <field name="nas_5gs.spare_b5" showname="..0. .... = Spare: 0" size="1" pos="122" show="0" value="0" unmaskedvalue="02"/>
                            <field name="nas_5gs.spare_b4" showname="...0 .... = Spare: 0" size="1" pos="122" show="0" value="0" unmaskedvalue="02"/>
                            <field name="nas_5gs.spare_b3" showname=".... 0... = Spare: 0" size="1" pos="122" show="0" value="0" unmaskedvalue="02"/>
                            <field name="nas_5gs.spare_b2" showname=".... .0.. = Spare: 0" size="1" pos="122" show="0" value="0" unmaskedvalue="02"/>
                            <field name="nas_5gs.mm.rinmr" showname=".... ..1. = Retransmission of initial NAS message request (RINMR): Requested" size="1" pos="122" show="1" value="1" unmaskedvalue="02"/>
                            <field name="nas_5gs.mm.hdp" showname=".... ...0 = Horizontal derivation parameter (HDP): Not required" size="1" pos="122" show="0" value="0" unmaskedvalue="02"/>
                          </field>
                        </field>
                      </proto>
                    </field>
                  </field>
                </field>
              </field>
            </field>
          </field>
        </field>
      </field>
    </field>
  </proto>
</packet>


<packet>
  <proto name="geninfo" pos="0" showname="General information" size="186">
    <field name="num" pos="0" show="21" showname="Number" value="15" size="186"/>
    <field name="len" pos="0" show="186" showname="Frame Length" value="ba" size="186"/>
    <field name="caplen" pos="0" show="186" showname="Captured Length" value="ba" size="186"/>
    <field name="timestamp" pos="0" show="Apr  4, 2024 12:26:48.000695000 IST" showname="Captured Time" value="1712213808.000695000" size="186"/>
  </proto>
  <proto name="frame" showname="Frame 21: 186 bytes on wire (1488 bits), 186 bytes captured (1488 bits) on interface bridge104, id 0" size="186" pos="0">
    <field name="filtered" value="frame" />
  </proto>
  <proto name="eth" showname="Ethernet II, Src: 00:1c:42:45:12:08, Dst: 00:1c:42:16:da:82" size="14" pos="0">
    <field name="filtered" value="eth" />
  </proto>
  <proto name="ip" showname="Internet Protocol Version 4, Src: 192.168.56.120, Dst: 192.168.56.100" size="20" pos="14">
    <field name="filtered" value="ip" />
  </proto>
  <proto name="sctp" showname="Stream Control Transmission Protocol, Src Port: 59338 (59338), Dst Port: 38412 (38412)" size="44" pos="34">
    <field name="filtered" value="sctp" />
  </proto>
  <proto name="ngap" showname="NG Application Protocol (UplinkNASTransport)" size="107" pos="78">
    <field name="per.extension_bit" showname="0... .... Extension Bit: False" hide="yes" size="1" pos="78" show="0" value="0" unmaskedvalue="00"/>
    <field name="per.choice_index" showname="Choice Index: 0" hide="yes" size="1" pos="78" show="0" value="00"/>
    <field name="ngap.NGAP_PDU" showname="NGAP-PDU: initiatingMessage (0)" size="107" pos="78" show="0" value="002e4067000004000a000200040055000200010026003d3c7e042e555f70007e005e7700094573806121856151f17100237e004179000d0199f9070000000000000000101001002e04f0f0f0f02f020101530100007940135099f907000000010099f907000001e9b8cdaf">
      <field name="ngap.initiatingMessage_element" showname="initiatingMessage" size="107" pos="78" show="" value="">
        <field name="ngap.procedureCode" showname="procedureCode: id-UplinkNASTransport (46)" size="1" pos="79" show="46" value="2e"/>
        <field name="per.enum_index" showname="Enumerated Index: 1" hide="yes" size="1" pos="80" show="1" value="40"/>
        <field name="ngap.criticality" showname="criticality: ignore (1)" size="1" pos="80" show="1" value="40"/>
        <field name="per.open_type_length" showname="Open Type Length: 103" hide="yes" size="1" pos="81" show="103" value="67"/>
        <field name="ngap.value_element" showname="value" size="103" pos="82" show="" value="">
          <field name="ngap.UplinkNASTransport_element" showname="UplinkNASTransport" size="103" pos="82" show="" value="">
            <field name="per.extension_bit" showname="0... .... Extension Bit: False" hide="yes" size="1" pos="82" show="0" value="0" unmaskedvalue="00"/>
            <field name="per.sequence_of_length" showname="Sequence-Of Length: 4" hide="yes" size="2" pos="83" show="4" value="0004"/>
            <field name="ngap.protocolIEs" showname="protocolIEs: 4 items" size="100" pos="85" show="4" value="000a000200040055000200010026003d3c7e042e555f70007e005e7700094573806121856151f17100237e004179000d0199f9070000000000000000101001002e04f0f0f0f02f020101530100007940135099f907000000010099f907000001e9b8cdaf">
              <field name="" show="Item 0: id-AMF-UE-NGAP-ID" size="6" pos="85" value="000a00020004">
                <field name="ngap.ProtocolIE_Field_element" showname="ProtocolIE-Field" size="6" pos="85" show="" value="">
                  <field name="ngap.id" showname="id: id-AMF-UE-NGAP-ID (10)" size="2" pos="85" show="10" value="000a"/>
                  <field name="per.enum_index" showname="Enumerated Index: 0" hide="yes" size="1" pos="87" show="0" value="00"/>
                  <field name="ngap.criticality" showname="criticality: reject (0)" size="1" pos="87" show="0" value="00"/>
                  <field name="per.open_type_length" showname="Open Type Length: 2" hide="yes" size="1" pos="88" show="2" value="02"/>
                  <field name="ngap.value_element" showname="value" size="2" pos="89" show="" value="">
                    <field name="ngap.AMF_UE_NGAP_ID" showname="AMF-UE-NGAP-ID: 4" size="2" pos="89" show="4" value="0004"/>
                  </field>
                </field>
              </field>
              <field name="" show="Item 1: id-RAN-UE-NGAP-ID" size="6" pos="91" value="005500020001">
                <field name="ngap.ProtocolIE_Field_element" showname="ProtocolIE-Field" size="6" pos="91" show="" value="">
                  <field name="ngap.id" showname="id: id-RAN-UE-NGAP-ID (85)" size="2" pos="91" show="85" value="0055"/>
                  <field name="per.enum_index" showname="Enumerated Index: 0" hide="yes" size="1" pos="93" show="0" value="00"/>
                  <field name="ngap.criticality" showname="criticality: reject (0)" size="1" pos="93" show="0" value="00"/>
                  <field name="per.open_type_length" showname="Open Type Length: 2" hide="yes" size="1" pos="94" show="2" value="02"/>
                  <field name="ngap.value_element" showname="value" size="2" pos="95" show="" value="">
                    <field name="ngap.RAN_UE_NGAP_ID" showname="RAN-UE-NGAP-ID: 1" size="2" pos="95" show="1" value="0001"/>
                  </field>
                </field>
              </field>
              <field name="" show="Item 2: id-NAS-PDU" size="65" pos="97" value="0026003d3c7e042e555f70007e005e7700094573806121856151f17100237e004179000d0199f9070000000000000000101001002e04f0f0f0f02f020101530100">
                <field name="ngap.ProtocolIE_Field_element" showname="ProtocolIE-Field" size="65" pos="97" show="" value="">
                  <field name="ngap.id" showname="id: id-NAS-PDU (38)" size="2" pos="97" show="38" value="0026"/>
                  <field name="per.enum_index" showname="Enumerated Index: 0" hide="yes" size="1" pos="99" show="0" value="00"/>
                  <field name="ngap.criticality" showname="criticality: reject (0)" size="1" pos="99" show="0" value="00"/>
                  <field name="per.open_type_length" showname="Open Type Length: 61" hide="yes" size="1" pos="100" show="61" value="3d"/>
                  <field name="ngap.value_element" showname="value" size="61" pos="101" show="" value="">
                    <field name="per.octet_string_length" showname="Octet String Length: 60" hide="yes" size="1" pos="101" show="60" value="3c"/>
                    <field name="ngap.NAS_PDU" showname="NAS-PDU: 7e042e555f70007e005e7700094573806121856151f17100237e004179000d0199f90700" size="60" pos="102" show="7e:04:2e:55:5f:70:00:7e:00:5e:77:00:09:45:73:80:61:21:85:61:51:f1:71:00:23:7e:00:41:79:00:0d:01:99:f9:07:00:00:00:00:00:00:00:00:10:10:01:00:2e:04:f0:f0:f0:f0:2f:02:01:01:53:01:00" value="7e042e555f70007e005e7700094573806121856151f17100237e004179000d0199f9070000000000000000101001002e04f0f0f0f02f020101530100">
                      <proto name="nas-5gs" showname="Non-Access-Stratum 5GS (NAS)PDU" size="60" pos="102">
                        <field name="" show="Security protected NAS 5GS message" size="7" pos="102" value="7e042e555f7000">
                          <field name="nas_5gs.epd" showname="Extended protocol discriminator: 5G mobility management messages (126)" size="1" pos="102" show="126" value="7e"/>
                          <field name="nas_5gs.spare_half_octet" showname="0000 .... = Spare Half Octet: 0" size="1" pos="103" show="0" value="0" unmaskedvalue="04"/>
                          <field name="nas_5gs.security_header_type" showname=".... 0100 = Security header type: Integrity protected and ciphered with new 5GS security context (4)" size="1" pos="103" show="4" value="4" unmaskedvalue="04"/>
                          <field name="nas_5gs.msg_auth_code" showname="Message authentication code: 0x2e555f70" size="4" pos="104" show="0x2e555f70" value="2e555f70"/>
                          <field name="nas_5gs.seq_no" showname="Sequence number: 0" size="1" pos="108" show="0" value="00"/>
                        </field>
                        <field name="" show="Plain NAS 5GS Message" size="53" pos="109" value="7e005e7700094573806121856151f17100237e004179000d0199f9070000000000000000101001002e04f0f0f0f02f020101530100">
                          <field name="nas_5gs.epd" showname="Extended protocol discriminator: 5G mobility management messages (126)" size="1" pos="109" show="126" value="7e"/>
                          <field name="nas_5gs.spare_half_octet" showname="0000 .... = Spare Half Octet: 0" size="1" pos="110" show="0" value="0" unmaskedvalue="00"/>
                          <field name="nas_5gs.security_header_type" showname=".... 0000 = Security header type: Plain NAS message, not security protected (0)" size="1" pos="110" show="0" value="0" unmaskedvalue="00"/>
                          <field name="nas_5gs.mm.message_type" showname="Message type: Security mode complete (0x5e)" size="1" pos="111" show="0x5e" value="5e"/>
                          <field name="" show="5GS mobile identity" size="12" pos="112" value="7700094573806121856151f1">
                            <field name="nas_5gs.mm.elem_id" showname="Element ID: 0x77" size="1" pos="112" show="0x77" value="77"/>
                            <field name="gsm_a.len" showname="Length: 9" size="2" pos="113" show="9" value="0009"/>
                            <field name="nas_5gs.mm.odd_even" showname=".... 0... = Odd/even indication: Even number of identity digits" size="1" pos="115" show="0" value="0" unmaskedvalue="45"/>
                            <field name="nas_5gs.mm.type_id" showname=".... .101 = Type of identity: IMEISV (5)" size="1" pos="115" show="5" value="5" unmaskedvalue="45"/>
                            <field name="nas_5gs.mm.imeisv" showname="IMEISV: 4370816125816151" size="9" pos="115" show="4370816125816151" value="4573806121856151f1"/>
                          </field>
                          <field name="" show="NAS message container" size="38" pos="124" value="7100237e004179000d0199f9070000000000000000101001002e04f0f0f0f02f020101530100">
                            <field name="nas_5gs.mm.elem_id" showname="Element ID: 0x71" size="1" pos="124" show="0x71" value="71"/>
                            <field name="gsm_a.len" showname="Length: 35" size="2" pos="125" show="35" value="0023"/>
                            <proto name="nas-5gs" showname="Non-Access-Stratum 5GS (NAS)PDU" size="35" pos="127">
                              <field name="" show="Plain NAS 5GS Message" size="35" pos="127" value="7e004179000d0199f9070000000000000000101001002e04f0f0f0f02f020101530100">
                                <field name="nas_5gs.epd" showname="Extended protocol discriminator: 5G mobility management messages (126)" size="1" pos="127" show="126" value="7e"/>
                                <field name="nas_5gs.spare_half_octet" showname="0000 .... = Spare Half Octet: 0" size="1" pos="128" show="0" value="0" unmaskedvalue="00"/>
                                <field name="nas_5gs.security_header_type" showname=".... 0000 = Security header type: Plain NAS message, not security protected (0)" size="1" pos="128" show="0" value="0" unmaskedvalue="00"/>
                                <field name="nas_5gs.mm.message_type" showname="Message type: Registration request (0x41)" size="1" pos="129" show="0x41" value="41"/>
                                <field name="" show="5GS registration type" size="1" pos="130" value="79">
                                  <field name="nas_5gs.mm.for" showname=".... 1... = Follow-On Request bit (FOR): Follow-on request pending" size="1" pos="130" show="1" value="1" unmaskedvalue="79"/>
                                  <field name="nas_5gs.mm.5gs_reg_type" showname=".... .001 = 5GS registration type: initial registration (1)" size="1" pos="130" show="1" value="1" unmaskedvalue="79"/>
                                </field>
                                <field name="" show="NAS key set identifier" size="1" pos="130" value="79">
                                  <field name="nas_5gs.mm.tsc.h1" showname="0... .... = Type of security context flag (TSC): Native security context (for KSIAMF)" size="1" pos="130" show="0" value="0" unmaskedvalue="79"/>
                                  <field name="nas_5gs.mm.nas_key_set_id.h1" showname=".111 .... = NAS key set identifier: 7" size="1" pos="130" show="7" value="7" unmaskedvalue="79"/>
                                </field>
                                <field name="" show="5GS mobile identity" size="15" pos="131" value="000d0199f907000000000000000010">
                                  <field name="gsm_a.len" showname="Length: 13" size="2" pos="131" show="13" value="000d"/>
                                  <field name="nas_5gs.spare_b7" showname="0... .... = Spare: 0" size="1" pos="133" show="0" value="0" unmaskedvalue="01"/>
                                  <field name="nas_5gs.mm.suci.supi_fmt" showname=".000 .... = SUPI format: IMSI (0)" size="1" pos="133" show="0" value="0" unmaskedvalue="01"/>
                                  <field name="nas_5gs.spare_b3" showname=".... 0... = Spare: 0" size="1" pos="133" show="0" value="0" unmaskedvalue="01"/>
                                  <field name="nas_5gs.mm.type_id" showname=".... .001 = Type of identity: SUCI (1)" size="1" pos="133" show="1" value="1" unmaskedvalue="01"/>
                                  <field name="e212.mcc" showname="Mobile Country Code (MCC): Private network (999)" size="2" pos="134" show="999" value="99f9"/>
                                  <field name="e212.mnc" showname="Mobile Network Code (MNC): Unknown (70)" size="2" pos="135" show="70" value="f907"/>
                                  <field name="nas_5gs.mm.suci.routing_indicator" showname="Routing indicator: 0000" size="2" pos="137" show="0000" value="0000"/>
                                  <field name="nas_5gs.mm.suci.scheme_id" showname=".... 0000 = Protection scheme Id: NULL scheme (0)" size="1" pos="139" show="0" value="0" unmaskedvalue="00"/>
                                  <field name="nas_5gs.mm.suci.pki" showname="Home network public key identifier: 0" size="1" pos="140" show="0" value="00"/>
                                  <field name="nas_5gs.mm.suci.msin" showname="MSIN: 0000000001" size="5" pos="141" show="0000000001" value="0000000010"/>
                                </field>
                                <field name="" show="5GMM capability" size="3" pos="146" value="100100">
                                  <field name="nas_5gs.mm.elem_id" showname="Element ID: 0x10" size="1" pos="146" show="0x10" value="10"/>
                                  <field name="gsm_a.len" showname="Length: 1" size="1" pos="147" show="1" value="01"/>
                                  <field name="nas_5gs.mm.sgc_b7" showname="0... .... = Service gap control (SGC): Not supported" size="1" pos="148" show="0" value="0" unmaskedvalue="00"/>
                                  <field name="nas_5gs.mm.5g_iphc_cp_ciot_b6" showname=".0.. .... = IP header compression for control plane CIoT 5GS optimization (5G-IPHC-CP CIoT): Not supported" size="1" pos="148" show="0" value="0" unmaskedvalue="00"/>
                                  <field name="nas_5gs.mm.n3_data_b5" showname="..0. .... = N3 data transfer (N3 data): Not supported" size="1" pos="148" show="0" value="0" unmaskedvalue="00"/>
                                  <field name="nas_5gs.mm.5g_cp_ciot_b4" showname="...0 .... = Control plane CIoT 5GS optimization (5G-CP CIoT): Not supported" size="1" pos="148" show="0" value="0" unmaskedvalue="00"/>
                                  <field name="nas_5gs.mm.restrict_ec_b3" showname=".... 0... = Restriction on use of enhanced coverage support (RestrictEC): Not supported" size="1" pos="148" show="0" value="0" unmaskedvalue="00"/>
                                  <field name="nas_5gs.mm.lpp_cap_b2" showname=".... .0.. = LTE Positioning Protocol (LPP) capability: Not supported" size="1" pos="148" show="0" value="0" unmaskedvalue="00"/>
                                  <field name="nas_5gs.mm.ho_attach_b1" showname=".... ..0. = ATTACH REQUEST message containing PDN CONNECTIVITY REQUEST message for handover support (HO attach): Not supported" size="1" pos="148" show="0" value="0" unmaskedvalue="00"/>
                                  <field name="nas_5gs.mm.s1_mode_b0" showname=".... ...0 = EPC NAS supported (S1 mode): Not supported" size="1" pos="148" show="0" value="0" unmaskedvalue="00"/>
                                </field>
                                <field name="" show="UE security capability" size="6" pos="149" value="2e04f0f0f0f0">
                                  <field name="nas_5gs.mm.elem_id" showname="Element ID: 0x2e" size="1" pos="149" show="0x2e" value="2e"/>
                                  <field name="gsm_a.len" showname="Length: 4" size="1" pos="150" show="4" value="04"/>
                                  <field name="nas_5gs.mm.5g_ea0" showname="1... .... = 5G-EA0: Supported" size="1" pos="151" show="1" value="1" unmaskedvalue="f0"/>
                                  <field name="nas_5gs.mm.128_5g_ea1" showname=".1.. .... = 128-5G-EA1: Supported" size="1" pos="151" show="1" value="1" unmaskedvalue="f0"/>
                                  <field name="nas_5gs.mm.128_5g_ea2" showname="..1. .... = 128-5G-EA2: Supported" size="1" pos="151" show="1" value="1" unmaskedvalue="f0"/>
                                  <field name="nas_5gs.mm.128_5g_ea3" showname="...1 .... = 128-5G-EA3: Supported" size="1" pos="151" show="1" value="1" unmaskedvalue="f0"/>
                                  <field name="nas_5gs.mm.5g_ea4" showname=".... 0... = 5G-EA4: Not supported" size="1" pos="151" show="0" value="0" unmaskedvalue="f0"/>
                                  <field name="nas_5gs.mm.5g_ea5" showname=".... .0.. = 5G-EA5: Not supported" size="1" pos="151" show="0" value="0" unmaskedvalue="f0"/>
                                  <field name="nas_5gs.mm.5g_ea6" showname=".... ..0. = 5G-EA6: Not supported" size="1" pos="151" show="0" value="0" unmaskedvalue="f0"/>
                                  <field name="nas_5gs.mm.5g_ea7" showname=".... ...0 = 5G-EA7: Not supported" size="1" pos="151" show="0" value="0" unmaskedvalue="f0"/>
                                  <field name="nas_5gs.mm.ia0" showname="1... .... = 5G-IA0: Supported" size="1" pos="152" show="1" value="1" unmaskedvalue="f0"/>
                                  <field name="nas_5gs.mm.5g_128_ia1" showname=".1.. .... = 128-5G-IA1: Supported" size="1" pos="152" show="1" value="1" unmaskedvalue="f0"/>
                                  <field name="nas_5gs.mm.5g_128_ia2" showname="..1. .... = 128-5G-IA2: Supported" size="1" pos="152" show="1" value="1" unmaskedvalue="f0"/>
                                  <field name="nas_5gs.mm.5g_128_ia3" showname="...1 .... = 128-5G-IA3: Supported" size="1" pos="152" show="1" value="1" unmaskedvalue="f0"/>
                                  <field name="nas_5gs.mm.5g_128_ia4" showname=".... 0... = 5G-IA4: Not supported" size="1" pos="152" show="0" value="0" unmaskedvalue="f0"/>
                                  <field name="nas_5gs.mm.5g_ia5" showname=".... .0.. = 5G-IA5: Not supported" size="1" pos="152" show="0" value="0" unmaskedvalue="f0"/>
                                  <field name="nas_5gs.mm.5g_ia6" showname=".... ..0. = 5G-IA6: Not supported" size="1" pos="152" show="0" value="0" unmaskedvalue="f0"/>
                                  <field name="nas_5gs.mm.5g_ia7" showname=".... ...0 = 5G-IA7: Not supported" size="1" pos="152" show="0" value="0" unmaskedvalue="f0"/>
                                  <field name="nas_5gs.mm.eea0" showname="1... .... = EEA0: Supported" size="1" pos="153" show="1" value="1" unmaskedvalue="f0"/>
                                  <field name="nas_5gs.mm.128eea1" showname=".1.. .... = 128-EEA1: Supported" size="1" pos="153" show="1" value="1" unmaskedvalue="f0"/>
                                  <field name="nas_5gs.mm.128eea2" showname="..1. .... = 128-EEA2: Supported" size="1" pos="153" show="1" value="1" unmaskedvalue="f0"/>
                                  <field name="nas_5gs.mm.eea3" showname="...1 .... = 128-EEA3: Supported" size="1" pos="153" show="1" value="1" unmaskedvalue="f0"/>
                                  <field name="nas_5gs.mm.eea4" showname=".... 0... = EEA4: Not supported" size="1" pos="153" show="0" value="0" unmaskedvalue="f0"/>
                                  <field name="nas_5gs.mm.eea5" showname=".... .0.. = EEA5: Not supported" size="1" pos="153" show="0" value="0" unmaskedvalue="f0"/>
                                  <field name="nas_5gs.mm.eea6" showname=".... ..0. = EEA6: Not supported" size="1" pos="153" show="0" value="0" unmaskedvalue="f0"/>
                                  <field name="nas_5gs.mm.eea7" showname=".... ...0 = EEA7: Not supported" size="1" pos="153" show="0" value="0" unmaskedvalue="f0"/>
                                  <field name="nas_5gs.mm.eia0" showname="1... .... = EIA0: Supported" size="1" pos="154" show="1" value="1" unmaskedvalue="f0"/>
                                  <field name="nas_5gs.mm.128eia1" showname=".1.. .... = 128-EIA1: Supported" size="1" pos="154" show="1" value="1" unmaskedvalue="f0"/>
                                  <field name="nas_5gs.mm.128eia2" showname="..1. .... = 128-EIA2: Supported" size="1" pos="154" show="1" value="1" unmaskedvalue="f0"/>
                                  <field name="nas_5gs.mm.eia3" showname="...1 .... = 128-EIA3: Supported" size="1" pos="154" show="1" value="1" unmaskedvalue="f0"/>
                                  <field name="nas_5gs.mm.eia4" showname=".... 0... = EIA4: Not supported" size="1" pos="154" show="0" value="0" unmaskedvalue="f0"/>
                                  <field name="nas_5gs.mm.eia5" showname=".... .0.. = EIA5: Not supported" size="1" pos="154" show="0" value="0" unmaskedvalue="f0"/>
                                  <field name="nas_5gs.mm.eia6" showname=".... ..0. = EIA6: Not supported" size="1" pos="154" show="0" value="0" unmaskedvalue="f0"/>
                                  <field name="nas_5gs.mm.eia7" showname=".... ...0 = EIA7: Not supported" size="1" pos="154" show="0" value="0" unmaskedvalue="f0"/>
                                </field>
                                <field name="" show="NSSAI - Requested NSSAI" size="4" pos="155" value="2f020101">
                                  <field name="nas_5gs.mm.elem_id" showname="Element ID: 0x2f" size="1" pos="155" show="0x2f" value="2f"/>
                                  <field name="gsm_a.len" showname="Length: 2" size="1" pos="156" show="2" value="02"/>
                                  <field name="" show="S-NSSAI 1" size="2" pos="157" value="0101">
                                    <field name="nas_5gs.mm.length" showname="Length: 1" size="1" pos="157" show="1" value="01"/>
                                    <field name="nas_5gs.mm.sst" showname="Slice/service type (SST): eMBB (1)" size="1" pos="158" show="1" value="01"/>
                                  </field>
                                </field>
                                <field name="" show="5GS update type" size="3" pos="159" value="530100">
                                  <field name="nas_5gs.mm.elem_id" showname="Element ID: 0x53" size="1" pos="159" show="0x53" value="53"/>
                                  <field name="gsm_a.len" showname="Length: 1" size="1" pos="160" show="1" value="01"/>
                                  <field name="nas_5gs.spare_b7" showname="0... .... = Spare: 0" size="1" pos="161" show="0" value="0" unmaskedvalue="00"/>
                                  <field name="nas_5gs.spare_b6" showname=".0.. .... = Spare: 0" size="1" pos="161" show="0" value="0" unmaskedvalue="00"/>
                                  <field name="nas_5gs.mm.eps_pnb_ciot" showname="..00 .... = EPS Preferred CIoT network behaviour (EPS-PNB-CIoT): no additional information (0)" size="1" pos="161" show="0" value="0" unmaskedvalue="00"/>
                                  <field name="nas_5gs.mm.5gs_pnb_ciot" showname=".... 00.. = 5GS Preferred CIoT network behaviour (5GS PNB-CIoT): no additional information (0)" size="1" pos="161" show="0" value="0" unmaskedvalue="00"/>
                                  <field name="nas_5gs.mm.ng_ran_rcu" showname=".... ..0. = NG-RAN Radio Capability Update (NG-RAN-RCU): Not Needed" size="1" pos="161" show="0" value="0" unmaskedvalue="00"/>
                                  <field name="nas_5gs.mm.sms_requested" showname=".... ...0 = SMS over NAS transport requested (SMS requested): Not supported" size="1" pos="161" show="0" value="0" unmaskedvalue="00"/>
                                </field>
                              </field>
                            </proto>
                          </field>
                        </field>
                      </proto>
                    </field>
                  </field>
                </field>
              </field>
              <field name="" show="Item 3: id-UserLocationInformation" size="23" pos="162" value="007940135099f907000000010099f907000001e9b8cdaf">
                <field name="ngap.ProtocolIE_Field_element" showname="ProtocolIE-Field" size="23" pos="162" show="" value="">
                  <field name="ngap.id" showname="id: id-UserLocationInformation (121)" size="2" pos="162" show="121" value="0079"/>
                  <field name="per.enum_index" showname="Enumerated Index: 1" hide="yes" size="1" pos="164" show="1" value="40"/>
                  <field name="ngap.criticality" showname="criticality: ignore (1)" size="1" pos="164" show="1" value="40"/>
                  <field name="per.open_type_length" showname="Open Type Length: 19" hide="yes" size="1" pos="165" show="19" value="13"/>
                  <field name="ngap.value_element" showname="value" size="19" pos="166" show="" value="">
                    <field name="per.choice_index" showname="Choice Index: 1" hide="yes" size="1" pos="166" show="1" value="50"/>
                    <field name="ngap.UserLocationInformation" showname="UserLocationInformation: userLocationInformationNR (1)" size="19" pos="166" show="1" value="5099f907000000010099f907000001e9b8cdaf">
                      <field name="ngap.userLocationInformationNR_element" showname="userLocationInformationNR" size="19" pos="166" show="" value="">
                        <field name="per.extension_bit" showname="..0. .... Extension Bit: False" hide="yes" size="1" pos="166" show="0" value="0" unmaskedvalue="50"/>
                        <field name="per.optional_field_bit" showname="...1 .... Optional Field Bit: True (timeStamp is present)" hide="yes" size="1" pos="166" show="1" value="1" unmaskedvalue="50"/>
                        <field name="per.optional_field_bit" showname=".... 0... Optional Field Bit: False (iE-Extensions is NOT present)" hide="yes" size="1" pos="166" show="0" value="0" unmaskedvalue="50"/>
                        <field name="ngap.nR_CGI_element" showname="nR-CGI" size="8" pos="166" show="" value="">
                          <field name="per.extension_bit" showname=".... .0.. Extension Bit: False" hide="yes" size="1" pos="166" show="0" value="0" unmaskedvalue="50"/>
                          <field name="per.optional_field_bit" showname=".... ..0. Optional Field Bit: False (iE-Extensions is NOT present)" hide="yes" size="1" pos="166" show="0" value="0" unmaskedvalue="50"/>
                          <field name="ngap.pLMNIdentity" showname="pLMNIdentity: 99f907" size="3" pos="167" show="99:f9:07" value="99f907">
                            <field name="e212.nrcgi.mcc" showname="Mobile Country Code (MCC): Private network (999)" size="2" pos="167" show="999" value="99f9"/>
                            <field name="e212.nrcgi.mnc" showname="Mobile Network Code (MNC): Unknown (70)" size="2" pos="168" show="70" value="f907"/>
                          </field>
                          <field name="ngap.NRCellIdentity" showname="nRCellIdentity: 0x0000000010" size="5" pos="166" show="0x0000000000000010" value="0000000100"/>
                        </field>
                        <field name="ngap.tAI_element" showname="tAI" size="7" pos="174" show="" value="">
                          <field name="per.extension_bit" showname=".... 0... Extension Bit: False" hide="yes" size="1" pos="174" show="0" value="0" unmaskedvalue="00"/>
                          <field name="per.optional_field_bit" showname=".... .0.. Optional Field Bit: False (iE-Extensions is NOT present)" hide="yes" size="1" pos="174" show="0" value="0" unmaskedvalue="00"/>
                          <field name="ngap.pLMNIdentity" showname="pLMNIdentity: 99f907" size="3" pos="175" show="99:f9:07" value="99f907">
                            <field name="e212.5gstai.mcc" showname="Mobile Country Code (MCC): Private network (999)" size="2" pos="175" show="999" value="99f9"/>
                            <field name="e212.5gstai.mnc" showname="Mobile Network Code (MNC): Unknown (70)" size="2" pos="176" show="70" value="f907"/>
                          </field>
                          <field name="ngap.tAC" showname="tAC: 1 (0x000001)" size="3" pos="178" show="1" value="000001"/>
                        </field>
                        <field name="ngap.timeStamp" showname="timeStamp: e9b8cdaf (Apr  4, 2024 06:56:47 UTC)" size="4" pos="181" show="e9:b8:cd:af" value="e9b8cdaf"/>
                      </field>
                    </field>
                  </field>
                </field>
              </field>
            </field>
          </field>
        </field>
      </field>
    </field>
  </proto>
</packet>


<packet>
  <proto name="geninfo" pos="0" showname="General information" size="230">
    <field name="num" pos="0" show="22" showname="Number" value="16" size="230"/>
    <field name="len" pos="0" show="230" showname="Frame Length" value="e6" size="230"/>
    <field name="caplen" pos="0" show="230" showname="Captured Length" value="e6" size="230"/>
    <field name="timestamp" pos="0" show="Apr  4, 2024 12:26:48.014187000 IST" showname="Captured Time" value="1712213808.014187000" size="230"/>
  </proto>
  <proto name="frame" showname="Frame 22: 230 bytes on wire (1840 bits), 230 bytes captured (1840 bits) on interface bridge104, id 0" size="230" pos="0">
    <field name="filtered" value="frame" />
  </proto>
  <proto name="eth" showname="Ethernet II, Src: 00:1c:42:16:da:82, Dst: 00:1c:42:45:12:08" size="14" pos="0">
    <field name="filtered" value="eth" />
  </proto>
  <proto name="ip" showname="Internet Protocol Version 4, Src: 192.168.56.100, Dst: 192.168.56.120" size="20" pos="14">
    <field name="filtered" value="ip" />
  </proto>
  <proto name="sctp" showname="Stream Control Transmission Protocol, Src Port: 38412 (38412), Dst Port: 59338 (59338)" size="44" pos="34">
    <field name="filtered" value="sctp" />
  </proto>
  <proto name="ngap" showname="NG Application Protocol (InitialContextSetupRequest)" size="149" pos="78">
    <field name="per.extension_bit" showname="0... .... Extension Bit: False" hide="yes" size="1" pos="78" show="0" value="0" unmaskedvalue="00"/>
    <field name="per.choice_index" showname="Choice Index: 0" hide="yes" size="1" pos="78" show="0" value="00"/>
    <field name="ngap.NGAP_PDU" showname="NGAP-PDU: initiatingMessage (0)" size="149" pos="78" show="0" value="000e008090000008000a00020004005500020001001c00070099f907020040000000020001007700091c000e000700038000005e0020f186914f5fa8a41432a3c65fef55eb4880df50affcce0fde04eaacb78ea2dd40002240084370816125ffff510026402f2e7e027b3bad86017e0042010177000bf299f907020040c000068854074099f90700000115020101210201005e01a9">
      <field name="ngap.initiatingMessage_element" showname="initiatingMessage" size="149" pos="78" show="" value="">
        <field name="ngap.procedureCode" showname="procedureCode: id-InitialContextSetup (14)" size="1" pos="79" show="14" value="0e"/>
        <field name="per.enum_index" showname="Enumerated Index: 0" hide="yes" size="1" pos="80" show="0" value="00"/>
        <field name="ngap.criticality" showname="criticality: reject (0)" size="1" pos="80" show="0" value="00"/>
        <field name="per.open_type_length" showname="Open Type Length: 144" hide="yes" size="2" pos="81" show="144" value="8090"/>
        <field name="ngap.value_element" showname="value" size="144" pos="83" show="" value="">
          <field name="ngap.InitialContextSetupRequest_element" showname="InitialContextSetupRequest" size="144" pos="83" show="" value="">
            <field name="per.extension_bit" showname="0... .... Extension Bit: False" hide="yes" size="1" pos="83" show="0" value="0" unmaskedvalue="00"/>
            <field name="per.sequence_of_length" showname="Sequence-Of Length: 8" hide="yes" size="2" pos="84" show="8" value="0008"/>
            <field name="ngap.protocolIEs" showname="protocolIEs: 8 items" size="141" pos="86" show="8" value="000a00020004005500020001001c00070099f907020040000000020001007700091c000e000700038000005e0020f186914f5fa8a41432a3c65fef55eb4880df50affcce0fde04eaacb78ea2dd40002240084370816125ffff510026402f2e7e027b3bad86017e0042010177000bf299f907020040c000068854074099f90700000115020101210201005e01a9">
              <field name="" show="Item 0: id-AMF-UE-NGAP-ID" size="6" pos="86" value="000a00020004">
                <field name="ngap.ProtocolIE_Field_element" showname="ProtocolIE-Field" size="6" pos="86" show="" value="">
                  <field name="ngap.id" showname="id: id-AMF-UE-NGAP-ID (10)" size="2" pos="86" show="10" value="000a"/>
                  <field name="per.enum_index" showname="Enumerated Index: 0" hide="yes" size="1" pos="88" show="0" value="00"/>
                  <field name="ngap.criticality" showname="criticality: reject (0)" size="1" pos="88" show="0" value="00"/>
                  <field name="per.open_type_length" showname="Open Type Length: 2" hide="yes" size="1" pos="89" show="2" value="02"/>
                  <field name="ngap.value_element" showname="value" size="2" pos="90" show="" value="">
                    <field name="ngap.AMF_UE_NGAP_ID" showname="AMF-UE-NGAP-ID: 4" size="2" pos="90" show="4" value="0004"/>
                  </field>
                </field>
              </field>
              <field name="" show="Item 1: id-RAN-UE-NGAP-ID" size="6" pos="92" value="005500020001">
                <field name="ngap.ProtocolIE_Field_element" showname="ProtocolIE-Field" size="6" pos="92" show="" value="">
                  <field name="ngap.id" showname="id: id-RAN-UE-NGAP-ID (85)" size="2" pos="92" show="85" value="0055"/>
                  <field name="per.enum_index" showname="Enumerated Index: 0" hide="yes" size="1" pos="94" show="0" value="00"/>
                  <field name="ngap.criticality" showname="criticality: reject (0)" size="1" pos="94" show="0" value="00"/>
                  <field name="per.open_type_length" showname="Open Type Length: 2" hide="yes" size="1" pos="95" show="2" value="02"/>
                  <field name="ngap.value_element" showname="value" size="2" pos="96" show="" value="">
                    <field name="ngap.RAN_UE_NGAP_ID" showname="RAN-UE-NGAP-ID: 1" size="2" pos="96" show="1" value="0001"/>
                  </field>
                </field>
              </field>
              <field name="" show="Item 2: id-GUAMI" size="11" pos="98" value="001c00070099f907020040">
                <field name="ngap.ProtocolIE_Field_element" showname="ProtocolIE-Field" size="11" pos="98" show="" value="">
                  <field name="ngap.id" showname="id: id-GUAMI (28)" size="2" pos="98" show="28" value="001c"/>
                  <field name="per.enum_index" showname="Enumerated Index: 0" hide="yes" size="1" pos="100" show="0" value="00"/>
                  <field name="ngap.criticality" showname="criticality: reject (0)" size="1" pos="100" show="0" value="00"/>
                  <field name="per.open_type_length" showname="Open Type Length: 7" hide="yes" size="1" pos="101" show="7" value="07"/>
                  <field name="ngap.value_element" showname="value" size="7" pos="102" show="" value="">
                    <field name="ngap.GUAMI_element" showname="GUAMI" size="7" pos="102" show="" value="">
                      <field name="per.extension_bit" showname="0... .... Extension Bit: False" hide="yes" size="1" pos="102" show="0" value="0" unmaskedvalue="00"/>
                      <field name="per.optional_field_bit" showname=".0.. .... Optional Field Bit: False (iE-Extensions is NOT present)" hide="yes" size="1" pos="102" show="0" value="0" unmaskedvalue="00"/>
                      <field name="ngap.pLMNIdentity" showname="pLMNIdentity: 99f907" size="3" pos="103" show="99:f9:07" value="99f907">
                        <field name="e212.guami.mcc" showname="Mobile Country Code (MCC): Private network (999)" size="2" pos="103" show="999" value="99f9"/>
                        <field name="e212.guami.mnc" showname="Mobile Network Code (MNC): Unknown (70)" size="2" pos="104" show="70" value="f907"/>
                      </field>
                      <field name="ngap.aMFRegionID" showname="aMFRegionID: 02 [bit length 8, 0000 0010 decimal value 2]" size="1" pos="106" show="02" value="02"/>
                      <field name="ngap.aMFSetID" showname="aMFSetID: 0040 [bit length 10, 6 LSB pad bits, 0000 0000  01.. .... decimal value 1]" size="2" pos="102" show="00:40" value="0040"/>
                      <field name="ngap.aMFPointer" showname="aMFPointer: 00 [bit length 6, 2 LSB pad bits, 0000 00.. decimal value 0]" size="1" pos="102" show="00" value="00"/>
                    </field>
                  </field>
                </field>
              </field>
              <field name="" show="Item 3: id-AllowedNSSAI" size="6" pos="109" value="000000020001">
                <field name="ngap.ProtocolIE_Field_element" showname="ProtocolIE-Field" size="6" pos="109" show="" value="">
                  <field name="ngap.id" showname="id: id-AllowedNSSAI (0)" size="2" pos="109" show="0" value="0000"/>
                  <field name="per.enum_index" showname="Enumerated Index: 0" hide="yes" size="1" pos="111" show="0" value="00"/>
                  <field name="ngap.criticality" showname="criticality: reject (0)" size="1" pos="111" show="0" value="00"/>
                  <field name="per.open_type_length" showname="Open Type Length: 2" hide="yes" size="1" pos="112" show="2" value="02"/>
                  <field name="ngap.value_element" showname="value" size="2" pos="113" show="" value="">
                    <field name="per.sequence_of_length" showname="Sequence-Of Length: 1" hide="yes" size="1" pos="113" show="1" value="00"/>
                    <field name="ngap.AllowedNSSAI" showname="AllowedNSSAI: 1 item" size="2" pos="113" show="1" value="0001">
                      <field name="" show="Item 0" size="2" pos="113" value="0001">
                        <field name="ngap.AllowedNSSAI_Item_element" showname="AllowedNSSAI-Item" size="2" pos="113" show="" value="">
                          <field name="per.extension_bit" showname="...0 .... Extension Bit: False" hide="yes" size="1" pos="113" show="0" value="0" unmaskedvalue="00"/>
                          <field name="per.optional_field_bit" showname=".... 0... Optional Field Bit: False (iE-Extensions is NOT present)" hide="yes" size="1" pos="113" show="0" value="0" unmaskedvalue="00"/>
                          <field name="ngap.s_NSSAI_element" showname="s-NSSAI" size="2" pos="113" show="" value="">
                            <field name="per.extension_bit" showname=".... .0.. Extension Bit: False" hide="yes" size="1" pos="113" show="0" value="0" unmaskedvalue="00"/>
                            <field name="per.optional_field_bit" showname=".... ..0. Optional Field Bit: False (sD is NOT present)" hide="yes" size="1" pos="113" show="0" value="0" unmaskedvalue="00"/>
                            <field name="per.optional_field_bit" showname=".... ...0 Optional Field Bit: False (iE-Extensions is NOT present)" hide="yes" size="1" pos="113" show="0" value="0" unmaskedvalue="00"/>
                            <field name="ngap.sST" showname="sST: 01" size="1" pos="114" show="01" value="01"/>
                          </field>
                        </field>
                      </field>
                    </field>
                  </field>
                </field>
              </field>
              <field name="" show="Item 4: id-UESecurityCapabilities" size="13" pos="115" value="007700091c000e000700038000">
                <field name="ngap.ProtocolIE_Field_element" showname="ProtocolIE-Field" size="13" pos="115" show="" value="">
                  <field name="ngap.id" showname="id: id-UESecurityCapabilities (119)" size="2" pos="115" show="119" value="0077"/>
                  <field name="per.enum_index" showname="Enumerated Index: 0" hide="yes" size="1" pos="117" show="0" value="00"/>
                  <field name="ngap.criticality" showname="criticality: reject (0)" size="1" pos="117" show="0" value="00"/>
                  <field name="per.open_type_length" showname="Open Type Length: 9" hide="yes" size="1" pos="118" show="9" value="09"/>
                  <field name="ngap.value_element" showname="value" size="9" pos="119" show="" value="">
                    <field name="ngap.UESecurityCapabilities_element" showname="UESecurityCapabilities" size="8" pos="119" show="" value="">
                      <field name="per.extension_bit" showname="0... .... Extension Bit: False" hide="yes" size="1" pos="119" show="0" value="0" unmaskedvalue="1c"/>
                      <field name="per.optional_field_bit" showname=".0.. .... Optional Field Bit: False (iE-Extensions is NOT present)" hide="yes" size="1" pos="119" show="0" value="0" unmaskedvalue="1c"/>
                      <field name="per.extension_present_bit" showname="..0. .... Extension Present Bit: False" hide="yes" size="1" pos="119" show="0" value="0" unmaskedvalue="1c"/>
                      <field name="ngap.nRencryptionAlgorithms" showname="nRencryptionAlgorithms: e000 [bit length 16, 1110 0000  0000 0000 decimal value 57344]" size="2" pos="119" show="e0:00" value="e000">
                        <field name="ngap.NrencryptionAlgorithms.nea1" showname="1... .... .... .... = 128-NEA1: Supported" size="2" pos="0" show="1" value="1" unmaskedvalue="e000"/>
                        <field name="ngap.NrencryptionAlgorithms.nea2" showname=".1.. .... .... .... = 128-NEA2: Supported" size="2" pos="0" show="1" value="1" unmaskedvalue="e000"/>
                        <field name="ngap.NrencryptionAlgorithms.nea3" showname="..1. .... .... .... = 128-NEA3: Supported" size="2" pos="0" show="1" value="1" unmaskedvalue="e000"/>
                        <field name="ngap.NrencryptionAlgorithms.reserved" showname="...0 0000 0000 0000 = Reserved: 0x0000" size="2" pos="0" show="0x0000" value="0" unmaskedvalue="e000"/>
                      </field>
                      <field name="per.extension_present_bit" showname="...0 .... Extension Present Bit: False" hide="yes" size="1" pos="121" show="0" value="0" unmaskedvalue="0e"/>
                      <field name="ngap.nRintegrityProtectionAlgorithms" showname="nRintegrityProtectionAlgorithms: e000 [bit length 16, 1110 0000  0000 0000 decimal value 57344]" size="2" pos="119" show="e0:00" value="e000">
                        <field name="ngap.NrintegrityProtectionAlgorithms.nia1" showname="1... .... .... .... = 128-NIA1: Supported" size="2" pos="0" show="1" value="1" unmaskedvalue="e000"/>
                        <field name="ngap.NrintegrityProtectionAlgorithms.nia2" showname=".1.. .... .... .... = 128-NIA2: Supported" size="2" pos="0" show="1" value="1" unmaskedvalue="e000"/>
                        <field name="ngap.NrintegrityProtectionAlgorithms.nia3" showname="..1. .... .... .... = 128-NIA3: Supported" size="2" pos="0" show="1" value="1" unmaskedvalue="e000"/>
                        <field name="ngap.NrintegrityProtectionAlgorithms.reserved" showname="...0 0000 0000 0000 = Reserved: 0x0000" size="2" pos="0" show="0x0000" value="0" unmaskedvalue="e000"/>
                      </field>
                      <field name="per.extension_present_bit" showname=".... 0... Extension Present Bit: False" hide="yes" size="1" pos="123" show="0" value="0" unmaskedvalue="07"/>
                      <field name="ngap.eUTRAencryptionAlgorithms" showname="eUTRAencryptionAlgorithms: e000 [bit length 16, 1110 0000  0000 0000 decimal value 57344]" size="2" pos="119" show="e0:00" value="e000">
                        <field name="ngap.EUTRAencryptionAlgorithms.eea1" showname="1... .... .... .... = 128-EEA1: Supported" size="2" pos="0" show="1" value="1" unmaskedvalue="e000"/>
                        <field name="ngap.EUTRAencryptionAlgorithms.eea2" showname=".1.. .... .... .... = 128-EEA2: Supported" size="2" pos="0" show="1" value="1" unmaskedvalue="e000"/>
                        <field name="ngap.EUTRAencryptionAlgorithms.eea3" showname="..1. .... .... .... = 128-EEA3: Supported" size="2" pos="0" show="1" value="1" unmaskedvalue="e000"/>
                        <field name="ngap.EUTRAencryptionAlgorithms.reserved" showname="...0 0000 0000 0000 = Reserved: 0x0000" size="2" pos="0" show="0x0000" value="0" unmaskedvalue="e000"/>
                      </field>
                      <field name="per.extension_present_bit" showname=".... .0.. Extension Present Bit: False" hide="yes" size="1" pos="125" show="0" value="0" unmaskedvalue="03"/>
                      <field name="ngap.eUTRAintegrityProtectionAlgorithms" showname="eUTRAintegrityProtectionAlgorithms: e000 [bit length 16, 1110 0000  0000 0000 decimal value 57344]" size="2" pos="119" show="e0:00" value="e000">
                        <field name="ngap.EUTRAintegrityProtectionAlgorithms.eia1" showname="1... .... .... .... = 128-EIA1: Supported" size="2" pos="0" show="1" value="1" unmaskedvalue="e000"/>
                        <field name="ngap.EUTRAintegrityProtectionAlgorithms.eia2" showname=".1.. .... .... .... = 128-EIA2: Supported" size="2" pos="0" show="1" value="1" unmaskedvalue="e000"/>
                        <field name="ngap.EUTRAintegrityProtectionAlgorithms.eia3" showname="..1. .... .... .... = 128-EIA3: Supported" size="2" pos="0" show="1" value="1" unmaskedvalue="e000"/>
                        <field name="ngap.EUTRAintegrityProtectionAlgorithms.reserved" showname="...0 0000 0000 0000 = Reserved: 0x0000" size="2" pos="0" show="0x0000" value="0" unmaskedvalue="e000"/>
                      </field>
                    </field>
                  </field>
                </field>
              </field>
              <field name="" show="Item 5: id-SecurityKey" size="36" pos="128" value="005e0020f186914f5fa8a41432a3c65fef55eb4880df50affcce0fde04eaacb78ea2dd40">
                <field name="ngap.ProtocolIE_Field_element" showname="ProtocolIE-Field" size="36" pos="128" show="" value="">
                  <field name="ngap.id" showname="id: id-SecurityKey (94)" size="2" pos="128" show="94" value="005e"/>
                  <field name="per.enum_index" showname="Enumerated Index: 0" hide="yes" size="1" pos="130" show="0" value="00"/>
                  <field name="ngap.criticality" showname="criticality: reject (0)" size="1" pos="130" show="0" value="00"/>
                  <field name="per.open_type_length" showname="Open Type Length: 32" hide="yes" size="1" pos="131" show="32" value="20"/>
                  <field name="ngap.value_element" showname="value" size="32" pos="132" show="" value="">
                    <field name="ngap.SecurityKey" showname="SecurityKey: f186914f5fa8a41432a3c65fef55eb4880df50affcce0fde04eaacb78ea2dd40 [bit length 256]" size="32" pos="132" show="f1:86:91:4f:5f:a8:a4:14:32:a3:c6:5f:ef:55:eb:48:80:df:50:af:fc:ce:0f:de:04:ea:ac:b7:8e:a2:dd:40" value="f186914f5fa8a41432a3c65fef55eb4880df50affcce0fde04eaacb78ea2dd40"/>
                  </field>
                </field>
              </field>
              <field name="" show="Item 6: id-MaskedIMEISV" size="12" pos="164" value="002240084370816125ffff51">
                <field name="ngap.ProtocolIE_Field_element" showname="ProtocolIE-Field" size="12" pos="164" show="" value="">
                  <field name="ngap.id" showname="id: id-MaskedIMEISV (34)" size="2" pos="164" show="34" value="0022"/>
                  <field name="per.enum_index" showname="Enumerated Index: 1" hide="yes" size="1" pos="166" show="1" value="40"/>
                  <field name="ngap.criticality" showname="criticality: ignore (1)" size="1" pos="166" show="1" value="40"/>
                  <field name="per.open_type_length" showname="Open Type Length: 8" hide="yes" size="1" pos="167" show="8" value="08"/>
                  <field name="ngap.value_element" showname="value" size="8" pos="168" show="" value="">
                    <field name="ngap.MaskedIMEISV" showname="MaskedIMEISV: 4370816125ffff51 [bit length 64, 0100 0011  0111 0000  1000 0001  0110 0001  0010 0101  1111 1111  1111 1111  0101 0001 decimal value 4859526252182110033]" size="8" pos="168" show="43:70:81:61:25:ff:ff:51" value="4370816125ffff51"/>
                  </field>
                </field>
              </field>
              <field name="" show="Item 7: id-NAS-PDU" size="51" pos="176" value="0026402f2e7e027b3bad86017e0042010177000bf299f907020040c000068854074099f90700000115020101210201005e01a9">
                <field name="ngap.ProtocolIE_Field_element" showname="ProtocolIE-Field" size="51" pos="176" show="" value="">
                  <field name="ngap.id" showname="id: id-NAS-PDU (38)" size="2" pos="176" show="38" value="0026"/>
                  <field name="per.enum_index" showname="Enumerated Index: 1" hide="yes" size="1" pos="178" show="1" value="40"/>
                  <field name="ngap.criticality" showname="criticality: ignore (1)" size="1" pos="178" show="1" value="40"/>
                  <field name="per.open_type_length" showname="Open Type Length: 47" hide="yes" size="1" pos="179" show="47" value="2f"/>
                  <field name="ngap.value_element" showname="value" size="47" pos="180" show="" value="">
                    <field name="per.octet_string_length" showname="Octet String Length: 46" hide="yes" size="1" pos="180" show="46" value="2e"/>
                    <field name="ngap.NAS_PDU" showname="NAS-PDU: 7e027b3bad86017e0042010177000bf299f907020040c000068854074099f90700000115" size="46" pos="181" show="7e:02:7b:3b:ad:86:01:7e:00:42:01:01:77:00:0b:f2:99:f9:07:02:00:40:c0:00:06:88:54:07:40:99:f9:07:00:00:01:15:02:01:01:21:02:01:00:5e:01:a9" value="7e027b3bad86017e0042010177000bf299f907020040c000068854074099f90700000115020101210201005e01a9">
                      <proto name="nas-5gs" showname="Non-Access-Stratum 5GS (NAS)PDU" size="46" pos="181">
                        <field name="" show="Security protected NAS 5GS message" size="7" pos="181" value="7e027b3bad8601">
                          <field name="nas_5gs.epd" showname="Extended protocol discriminator: 5G mobility management messages (126)" size="1" pos="181" show="126" value="7e"/>
                          <field name="nas_5gs.spare_half_octet" showname="0000 .... = Spare Half Octet: 0" size="1" pos="182" show="0" value="0" unmaskedvalue="02"/>
                          <field name="nas_5gs.security_header_type" showname=".... 0010 = Security header type: Integrity protected and ciphered (2)" size="1" pos="182" show="2" value="2" unmaskedvalue="02"/>
                          <field name="nas_5gs.msg_auth_code" showname="Message authentication code: 0x7b3bad86" size="4" pos="183" show="0x7b3bad86" value="7b3bad86"/>
                          <field name="nas_5gs.seq_no" showname="Sequence number: 1" size="1" pos="187" show="1" value="01"/>
                        </field>
                        <field name="" show="Plain NAS 5GS Message" size="39" pos="188" value="7e0042010177000bf299f907020040c000068854074099f90700000115020101210201005e01a9">
                          <field name="nas_5gs.epd" showname="Extended protocol discriminator: 5G mobility management messages (126)" size="1" pos="188" show="126" value="7e"/>
                          <field name="nas_5gs.spare_half_octet" showname="0000 .... = Spare Half Octet: 0" size="1" pos="189" show="0" value="0" unmaskedvalue="00"/>
                          <field name="nas_5gs.security_header_type" showname=".... 0000 = Security header type: Plain NAS message, not security protected (0)" size="1" pos="189" show="0" value="0" unmaskedvalue="00"/>
                          <field name="nas_5gs.mm.message_type" showname="Message type: Registration accept (0x42)" size="1" pos="190" show="0x42" value="42"/>
                          <field name="" show="5GS registration result" size="2" pos="191" value="0101">
                            <field name="gsm_a.len" showname="Length: 1" size="1" pos="191" show="1" value="01"/>
                            <field name="nas_5gs.mm.reg_res.emergency_reg" showname="..0. .... = Emergency registered: Not registered for emergency services" size="1" pos="192" show="0" value="0" unmaskedvalue="01"/>
                            <field name="nas_5gs.mm.reg_res.nssaa_perf" showname="...0 .... = NSSAA Performed: Network slice-specific authentication and authorization is not to be performed" size="1" pos="192" show="0" value="0" unmaskedvalue="01"/>
                            <field name="nas_5gs.mm.reg_res.sms_all" showname=".... 0... = SMS over NAS: Not Allowed" size="1" pos="192" show="0" value="0" unmaskedvalue="01"/>
                            <field name="nas_5gs.mm.reg_res.res" showname=".... .001 = 5GS registration result: 3GPP access (1)" size="1" pos="192" show="1" value="1" unmaskedvalue="01"/>
                          </field>
                          <field name="" show="5GS mobile identity - 5G-GUTI" size="14" pos="193" value="77000bf299f907020040c0000688">
                            <field name="nas_5gs.mm.elem_id" showname="Element ID: 0x77" size="1" pos="193" show="0x77" value="77"/>
                            <field name="gsm_a.len" showname="Length: 11" size="2" pos="194" show="11" value="000b"/>
                            <field name="nas_5gs.spare_b7" showname="1... .... = Spare: 1" size="1" pos="196" show="1" value="1" unmaskedvalue="f2"/>
                            <field name="nas_5gs.spare_b6" showname=".1.. .... = Spare: 1" size="1" pos="196" show="1" value="1" unmaskedvalue="f2"/>
                            <field name="nas_5gs.spare_b5" showname="..1. .... = Spare: 1" size="1" pos="196" show="1" value="1" unmaskedvalue="f2"/>
                            <field name="nas_5gs.spare_b4" showname="...1 .... = Spare: 1" size="1" pos="196" show="1" value="1" unmaskedvalue="f2"/>
                            <field name="nas_5gs.spare_b3" showname=".... 0... = Spare: 0" size="1" pos="196" show="0" value="0" unmaskedvalue="f2"/>
                            <field name="nas_5gs.mm.type_id" showname=".... .010 = Type of identity: 5G-GUTI (2)" size="1" pos="196" show="2" value="2" unmaskedvalue="f2"/>
                            <field name="e212.guami.mcc" showname="Mobile Country Code (MCC): Private network (999)" size="2" pos="197" show="999" value="99f9"/>
                            <field name="e212.guami.mnc" showname="Mobile Network Code (MNC): Unknown (70)" size="2" pos="198" show="70" value="f907"/>
                            <field name="nas_5gs.amf_region_id" showname="AMF Region ID: 2" size="1" pos="200" show="2" value="02"/>
                            <field name="nas_5gs.amf_set_id" showname="0000 0000 01.. .... = AMF Set ID: 1" size="2" pos="201" show="1" value="1" unmaskedvalue="0040"/>
                            <field name="nas_5gs.amf_pointer" showname="..00 0000 = AMF Pointer: 0" size="1" pos="202" show="0" value="0" unmaskedvalue="40"/>
                            <field name="nas_5gs.5g_tmsi" showname="5G-TMSI: 3221227144 (0xc0000688)" size="4" pos="203" show="3221227144" value="c0000688"/>
                            <field name="3gpp.tmsi" showname="TMSI/P-TMSI/M-TMSI/5G-TMSI: 3221227144 (0xc0000688)" hide="yes" size="4" pos="203" show="3221227144" value="c0000688"/>
                          </field>
                          <field name="" show="5GS tracking area identity list" size="9" pos="207" value="54074099f907000001">
                            <field name="nas_5gs.mm.elem_id" showname="Element ID: 0x54" size="1" pos="207" show="0x54" value="54"/>
                            <field name="gsm_a.len" showname="Length: 7" size="1" pos="208" show="7" value="07"/>
                            <field name="" show="Partial tracking area list  1" size="7" pos="209" value="4099f907000001">
                              <field name="nas_5gs.mm.tal_t_li" showname=".10. .... = Type of list: list of TAIs belonging to different PLMNs (2)" size="1" pos="209" show="2" value="2" unmaskedvalue="40"/>
                              <field name="nas_5gs.mm.tal_num_e" showname="...0 0000 = Number of elements: 1 element (0)" size="1" pos="209" show="0" value="0" unmaskedvalue="40"/>
                              <field name="e212.5gstai.mcc" showname="Mobile Country Code (MCC): Private network (999)" size="2" pos="210" show="999" value="99f9"/>
                              <field name="e212.5gstai.mnc" showname="Mobile Network Code (MNC): Unknown (70)" size="2" pos="211" show="70" value="f907"/>
                              <field name="nas_5gs.tac" showname="TAC: 1" size="3" pos="213" show="1" value="000001"/>
                            </field>
                          </field>
                          <field name="" show="NSSAI - Allowed NSSAI" size="4" pos="216" value="15020101">
                            <field name="nas_5gs.mm.elem_id" showname="Element ID: 0x15" size="1" pos="216" show="0x15" value="15"/>
                            <field name="gsm_a.len" showname="Length: 2" size="1" pos="217" show="2" value="02"/>
                            <field name="" show="S-NSSAI 1" size="2" pos="218" value="0101">
                              <field name="nas_5gs.mm.length" showname="Length: 1" size="1" pos="218" show="1" value="01"/>
                              <field name="nas_5gs.mm.sst" showname="Slice/service type (SST): eMBB (1)" size="1" pos="219" show="1" value="01"/>
                            </field>
                          </field>
                          <field name="" show="5GS network feature support" size="4" pos="220" value="21020100">
                            <field name="nas_5gs.mm.elem_id" showname="Element ID: 0x21" size="1" pos="220" show="0x21" value="21"/>
                            <field name="gsm_a.len" showname="Length: 2" size="1" pos="221" show="2" value="02"/>
                            <field name="nas_5gs.nw_feat_sup.mpsi" showname="0... .... = MPS indicator (MPSI): Access identity 1 not valid in RPLMN or equivalent PLMN" size="1" pos="222" show="0" value="0" unmaskedvalue="01"/>
                            <field name="nas_5gs.nw_feat_sup.iwk_n26" showname=".0.. .... = Interworking without N26 (IWK N26): Not supported" size="1" pos="222" show="0" value="0" unmaskedvalue="01"/>
                            <field name="nas_5gs.nw_feat_sup.emf" showname="..00 .... = Emergency service fallback indicator (EMF): Emergency services fallback not supported (0)" size="1" pos="222" show="0" value="0" unmaskedvalue="01"/>
                            <field name="nas_5gs.nw_feat_sup.emc" showname=".... 00.. = Emergency service support indicator (EMC): Emergency services not supported (0)" size="1" pos="222" show="0" value="0" unmaskedvalue="01"/>
                            <field name="nas_5gs.nw_feat_sup.vops_n3gpp" showname=".... ..0. = IMS voice over PS session over non-3GPP access indicator (IMS-VoPS-N3GPP): Not supported" size="1" pos="222" show="0" value="0" unmaskedvalue="01"/>
                            <field name="nas_5gs.nw_feat_sup.vops_3gpp" showname=".... ...1 = IMS voice over PS session indicator (IMS VoPS): Supported" size="1" pos="222" show="1" value="1" unmaskedvalue="01"/>
                            <field name="nas_5gs.nw_feat_sup.5g_ciot_up" showname="0... .... = User plane CIoT 5GS optimization (5G-UP CIoT): Not supported" size="1" pos="223" show="0" value="0" unmaskedvalue="00"/>
                            <field name="nas_5gs.nw_feat_sup.5g_iphc_cp_ciot" showname=".0.. .... = IP header compression for control plane CIoT 5GS optimization (5G-IPHC-CP CIoT): Not supported" size="1" pos="223" show="0" value="0" unmaskedvalue="00"/>
                            <field name="nas_5gs.nw_feat_sup.n3_data" showname="..0. .... = N3 data transfer (N3 data): Not supported" size="1" pos="223" show="0" value="0" unmaskedvalue="00"/>
                            <field name="nas_5gs.nw_feat_sup.5g_cp_ciot" showname="...0 .... = Control plane CIoT 5GS optimization (5G-CP CIoT): Not supported" size="1" pos="223" show="0" value="0" unmaskedvalue="00"/>
                            <field name="nas_5gs.nw_feat_sup.restrict_ec" showname=".... 00.. = Restriction on enhanced coverage (RestrictEC): WB-N1: Both CE mode A and CE mode B are not restricted / NB-N1: Use of enhanced coverage is not restricted (0)" size="1" pos="223" show="0" value="0" unmaskedvalue="00"/>
                            <field name="nas_5gs.nw_feat_sup.mcsi" showname=".... ..0. = MCS indicator (MCSI): Access identity 2 not valid" size="1" pos="223" show="0" value="0" unmaskedvalue="00"/>
                            <field name="nas_5gs.nw_feat_sup.emcn3" showname=".... ...0 = Emergency services over non-3GPP access (EMCN3): Not supported" size="1" pos="223" show="0" value="0" unmaskedvalue="00"/>
                          </field>
                          <field name="" show="GPRS Timer 3 - T3512 value" size="3" pos="224" value="5e01a9">
                            <field name="gsm_a.gm.elem_id" showname="Element ID: 0x5e" size="1" pos="224" show="0x5e" value="5e"/>
                            <field name="gsm_a.len" showname="Length: 1" size="1" pos="225" show="1" value="01"/>
                            <field name="gsm_a.gm.gmm.gprs_timer3" showname="GPRS Timer: 9 min" size="1" pos="226" show="0x09" value="a9">
                              <field name="gsm_a.gm.gmm.gprs_timer3_unit" showname="101. .... = Unit: value is incremented in multiples of 1 minute (5)" size="1" pos="226" show="5" value="5" unmaskedvalue="a9"/>
                              <field name="gsm_a.gm.gmm.gprs_timer3_value" showname="...0 1001 = Timer value: 9" size="1" pos="226" show="9" value="9" unmaskedvalue="a9"/>
                            </field>
                          </field>
                        </field>
                      </proto>
                    </field>
                  </field>
                </field>
              </field>
            </field>
          </field>
        </field>
      </field>
    </field>
  </proto>
</packet>


<packet>
  <proto name="geninfo" pos="0" showname="General information" size="98">
    <field name="num" pos="0" show="23" showname="Number" value="17" size="98"/>
    <field name="len" pos="0" show="98" showname="Frame Length" value="62" size="98"/>
    <field name="caplen" pos="0" show="98" showname="Captured Length" value="62" size="98"/>
    <field name="timestamp" pos="0" show="Apr  4, 2024 12:26:48.014552000 IST" showname="Captured Time" value="1712213808.014552000" size="98"/>
  </proto>
  <proto name="frame" showname="Frame 23: 98 bytes on wire (784 bits), 98 bytes captured (784 bits) on interface bridge104, id 0" size="98" pos="0">
    <field name="filtered" value="frame" />
  </proto>
  <proto name="eth" showname="Ethernet II, Src: 00:1c:42:45:12:08, Dst: 00:1c:42:16:da:82" size="14" pos="0">
    <field name="filtered" value="eth" />
  </proto>
  <proto name="ip" showname="Internet Protocol Version 4, Src: 192.168.56.120, Dst: 192.168.56.100" size="20" pos="14">
    <field name="filtered" value="ip" />
  </proto>
  <proto name="sctp" showname="Stream Control Transmission Protocol, Src Port: 59338 (59338), Dst Port: 38412 (38412)" size="44" pos="34">
    <field name="filtered" value="sctp" />
  </proto>
  <proto name="ngap" showname="NG Application Protocol (InitialContextSetupResponse)" size="19" pos="78">
    <field name="per.extension_bit" showname="0... .... Extension Bit: False" hide="yes" size="1" pos="78" show="0" value="0" unmaskedvalue="20"/>
    <field name="per.choice_index" showname="Choice Index: 1" hide="yes" size="1" pos="78" show="1" value="20"/>
    <field name="ngap.NGAP_PDU" showname="NGAP-PDU: successfulOutcome (1)" size="19" pos="78" show="1" value="200e000f000002000a40020004005540020001">
      <field name="ngap.successfulOutcome_element" showname="successfulOutcome" size="19" pos="78" show="" value="">
        <field name="ngap.procedureCode" showname="procedureCode: id-InitialContextSetup (14)" size="1" pos="79" show="14" value="0e"/>
        <field name="per.enum_index" showname="Enumerated Index: 0" hide="yes" size="1" pos="80" show="0" value="00"/>
        <field name="ngap.criticality" showname="criticality: reject (0)" size="1" pos="80" show="0" value="00"/>
        <field name="per.open_type_length" showname="Open Type Length: 15" hide="yes" size="1" pos="81" show="15" value="0f"/>
        <field name="ngap.value_element" showname="value" size="15" pos="82" show="" value="">
          <field name="ngap.InitialContextSetupResponse_element" showname="InitialContextSetupResponse" size="15" pos="82" show="" value="">
            <field name="per.extension_bit" showname="0... .... Extension Bit: False" hide="yes" size="1" pos="82" show="0" value="0" unmaskedvalue="00"/>
            <field name="per.sequence_of_length" showname="Sequence-Of Length: 2" hide="yes" size="2" pos="83" show="2" value="0002"/>
            <field name="ngap.protocolIEs" showname="protocolIEs: 2 items" size="12" pos="85" show="2" value="000a40020004005540020001">
              <field name="" show="Item 0: id-AMF-UE-NGAP-ID" size="6" pos="85" value="000a40020004">
                <field name="ngap.ProtocolIE_Field_element" showname="ProtocolIE-Field" size="6" pos="85" show="" value="">
                  <field name="ngap.id" showname="id: id-AMF-UE-NGAP-ID (10)" size="2" pos="85" show="10" value="000a"/>
                  <field name="per.enum_index" showname="Enumerated Index: 1" hide="yes" size="1" pos="87" show="1" value="40"/>
                  <field name="ngap.criticality" showname="criticality: ignore (1)" size="1" pos="87" show="1" value="40"/>
                  <field name="per.open_type_length" showname="Open Type Length: 2" hide="yes" size="1" pos="88" show="2" value="02"/>
                  <field name="ngap.value_element" showname="value" size="2" pos="89" show="" value="">
                    <field name="ngap.AMF_UE_NGAP_ID" showname="AMF-UE-NGAP-ID: 4" size="2" pos="89" show="4" value="0004"/>
                  </field>
                </field>
              </field>
              <field name="" show="Item 1: id-RAN-UE-NGAP-ID" size="6" pos="91" value="005540020001">
                <field name="ngap.ProtocolIE_Field_element" showname="ProtocolIE-Field" size="6" pos="91" show="" value="">
                  <field name="ngap.id" showname="id: id-RAN-UE-NGAP-ID (85)" size="2" pos="91" show="85" value="0055"/>
                  <field name="per.enum_index" showname="Enumerated Index: 1" hide="yes" size="1" pos="93" show="1" value="40"/>
                  <field name="ngap.criticality" showname="criticality: ignore (1)" size="1" pos="93" show="1" value="40"/>
                  <field name="per.open_type_length" showname="Open Type Length: 2" hide="yes" size="1" pos="94" show="2" value="02"/>
                  <field name="ngap.value_element" showname="value" size="2" pos="95" show="" value="">
                    <field name="ngap.RAN_UE_NGAP_ID" showname="RAN-UE-NGAP-ID: 1" size="2" pos="95" show="1" value="0001"/>
                  </field>
                </field>
              </field>
            </field>
          </field>
        </field>
      </field>
    </field>
  </proto>
</packet>


<packet>
  <proto name="geninfo" pos="0" showname="General information" size="238">
    <field name="num" pos="0" show="25" showname="Number" value="19" size="238"/>
    <field name="len" pos="0" show="238" showname="Frame Length" value="ee" size="238"/>
    <field name="caplen" pos="0" show="238" showname="Captured Length" value="ee" size="238"/>
    <field name="timestamp" pos="0" show="Apr  4, 2024 12:26:48.222714000 IST" showname="Captured Time" value="1712213808.222714000" size="238"/>
  </proto>
  <proto name="frame" showname="Frame 25: 238 bytes on wire (1904 bits), 238 bytes captured (1904 bits) on interface bridge104, id 0" size="238" pos="0">
    <field name="filtered" value="frame" />
  </proto>
  <proto name="eth" showname="Ethernet II, Src: 00:1c:42:45:12:08, Dst: 00:1c:42:16:da:82" size="14" pos="0">
    <field name="filtered" value="eth" />
  </proto>
  <proto name="ip" showname="Internet Protocol Version 4, Src: 192.168.56.120, Dst: 192.168.56.100" size="20" pos="14">
    <field name="filtered" value="ip" />
  </proto>
  <proto name="sctp" showname="Stream Control Transmission Protocol, Src Port: 59338 (59338), Dst Port: 38412 (38412)" size="28" pos="34">
    <field name="filtered" value="sctp" />
  </proto>
  <proto name="ngap" showname="NG Application Protocol (UplinkNASTransport)" size="57" pos="62">
    <field name="per.extension_bit" showname="0... .... Extension Bit: False" hide="yes" size="1" pos="62" show="0" value="0" unmaskedvalue="00"/>
    <field name="per.choice_index" showname="Choice Index: 0" hide="yes" size="1" pos="62" show="0" value="00"/>
    <field name="ngap.NGAP_PDU" showname="NGAP-PDU: initiatingMessage (0)" size="57" pos="62" show="0" value="002e4035000004000a000200040055000200010026000b0a7e026a2c0dd5017e0043007940135099f907000000010099f907000001e9b8cdaf">
      <field name="ngap.initiatingMessage_element" showname="initiatingMessage" size="57" pos="62" show="" value="">
        <field name="ngap.procedureCode" showname="procedureCode: id-UplinkNASTransport (46)" size="1" pos="63" show="46" value="2e"/>
        <field name="per.enum_index" showname="Enumerated Index: 1" hide="yes" size="1" pos="64" show="1" value="40"/>
        <field name="ngap.criticality" showname="criticality: ignore (1)" size="1" pos="64" show="1" value="40"/>
        <field name="per.open_type_length" showname="Open Type Length: 53" hide="yes" size="1" pos="65" show="53" value="35"/>
        <field name="ngap.value_element" showname="value" size="53" pos="66" show="" value="">
          <field name="ngap.UplinkNASTransport_element" showname="UplinkNASTransport" size="53" pos="66" show="" value="">
            <field name="per.extension_bit" showname="0... .... Extension Bit: False" hide="yes" size="1" pos="66" show="0" value="0" unmaskedvalue="00"/>
            <field name="per.sequence_of_length" showname="Sequence-Of Length: 4" hide="yes" size="2" pos="67" show="4" value="0004"/>
            <field name="ngap.protocolIEs" showname="protocolIEs: 4 items" size="50" pos="69" show="4" value="000a000200040055000200010026000b0a7e026a2c0dd5017e0043007940135099f907000000010099f907000001e9b8cdaf">
              <field name="" show="Item 0: id-AMF-UE-NGAP-ID" size="6" pos="69" value="000a00020004">
                <field name="ngap.ProtocolIE_Field_element" showname="ProtocolIE-Field" size="6" pos="69" show="" value="">
                  <field name="ngap.id" showname="id: id-AMF-UE-NGAP-ID (10)" size="2" pos="69" show="10" value="000a"/>
                  <field name="per.enum_index" showname="Enumerated Index: 0" hide="yes" size="1" pos="71" show="0" value="00"/>
                  <field name="ngap.criticality" showname="criticality: reject (0)" size="1" pos="71" show="0" value="00"/>
                  <field name="per.open_type_length" showname="Open Type Length: 2" hide="yes" size="1" pos="72" show="2" value="02"/>
                  <field name="ngap.value_element" showname="value" size="2" pos="73" show="" value="">
                    <field name="ngap.AMF_UE_NGAP_ID" showname="AMF-UE-NGAP-ID: 4" size="2" pos="73" show="4" value="0004"/>
                  </field>
                </field>
              </field>
              <field name="" show="Item 1: id-RAN-UE-NGAP-ID" size="6" pos="75" value="005500020001">
                <field name="ngap.ProtocolIE_Field_element" showname="ProtocolIE-Field" size="6" pos="75" show="" value="">
                  <field name="ngap.id" showname="id: id-RAN-UE-NGAP-ID (85)" size="2" pos="75" show="85" value="0055"/>
                  <field name="per.enum_index" showname="Enumerated Index: 0" hide="yes" size="1" pos="77" show="0" value="00"/>
                  <field name="ngap.criticality" showname="criticality: reject (0)" size="1" pos="77" show="0" value="00"/>
                  <field name="per.open_type_length" showname="Open Type Length: 2" hide="yes" size="1" pos="78" show="2" value="02"/>
                  <field name="ngap.value_element" showname="value" size="2" pos="79" show="" value="">
                    <field name="ngap.RAN_UE_NGAP_ID" showname="RAN-UE-NGAP-ID: 1" size="2" pos="79" show="1" value="0001"/>
                  </field>
                </field>
              </field>
              <field name="" show="Item 2: id-NAS-PDU" size="15" pos="81" value="0026000b0a7e026a2c0dd5017e0043">
                <field name="ngap.ProtocolIE_Field_element" showname="ProtocolIE-Field" size="15" pos="81" show="" value="">
                  <field name="ngap.id" showname="id: id-NAS-PDU (38)" size="2" pos="81" show="38" value="0026"/>
                  <field name="per.enum_index" showname="Enumerated Index: 0" hide="yes" size="1" pos="83" show="0" value="00"/>
                  <field name="ngap.criticality" showname="criticality: reject (0)" size="1" pos="83" show="0" value="00"/>
                  <field name="per.open_type_length" showname="Open Type Length: 11" hide="yes" size="1" pos="84" show="11" value="0b"/>
                  <field name="ngap.value_element" showname="value" size="11" pos="85" show="" value="">
                    <field name="per.octet_string_length" showname="Octet String Length: 10" hide="yes" size="1" pos="85" show="10" value="0a"/>
                    <field name="ngap.NAS_PDU" showname="NAS-PDU: 7e026a2c0dd5017e0043" size="10" pos="86" show="7e:02:6a:2c:0d:d5:01:7e:00:43" value="7e026a2c0dd5017e0043">
                      <proto name="nas-5gs" showname="Non-Access-Stratum 5GS (NAS)PDU" size="10" pos="86">
                        <field name="" show="Security protected NAS 5GS message" size="7" pos="86" value="7e026a2c0dd501">
                          <field name="nas_5gs.epd" showname="Extended protocol discriminator: 5G mobility management messages (126)" size="1" pos="86" show="126" value="7e"/>
                          <field name="nas_5gs.spare_half_octet" showname="0000 .... = Spare Half Octet: 0" size="1" pos="87" show="0" value="0" unmaskedvalue="02"/>
                          <field name="nas_5gs.security_header_type" showname=".... 0010 = Security header type: Integrity protected and ciphered (2)" size="1" pos="87" show="2" value="2" unmaskedvalue="02"/>
                          <field name="nas_5gs.msg_auth_code" showname="Message authentication code: 0x6a2c0dd5" size="4" pos="88" show="0x6a2c0dd5" value="6a2c0dd5"/>
                          <field name="nas_5gs.seq_no" showname="Sequence number: 1" size="1" pos="92" show="1" value="01"/>
                        </field>
                        <field name="" show="Plain NAS 5GS Message" size="3" pos="93" value="7e0043">
                          <field name="nas_5gs.epd" showname="Extended protocol discriminator: 5G mobility management messages (126)" size="1" pos="93" show="126" value="7e"/>
                          <field name="nas_5gs.spare_half_octet" showname="0000 .... = Spare Half Octet: 0" size="1" pos="94" show="0" value="0" unmaskedvalue="00"/>
                          <field name="nas_5gs.security_header_type" showname=".... 0000 = Security header type: Plain NAS message, not security protected (0)" size="1" pos="94" show="0" value="0" unmaskedvalue="00"/>
                          <field name="nas_5gs.mm.message_type" showname="Message type: Registration complete (0x43)" size="1" pos="95" show="0x43" value="43"/>
                        </field>
                      </proto>
                    </field>
                  </field>
                </field>
              </field>
              <field name="" show="Item 3: id-UserLocationInformation" size="23" pos="96" value="007940135099f907000000010099f907000001e9b8cdaf">
                <field name="ngap.ProtocolIE_Field_element" showname="ProtocolIE-Field" size="23" pos="96" show="" value="">
                  <field name="ngap.id" showname="id: id-UserLocationInformation (121)" size="2" pos="96" show="121" value="0079"/>
                  <field name="per.enum_index" showname="Enumerated Index: 1" hide="yes" size="1" pos="98" show="1" value="40"/>
                  <field name="ngap.criticality" showname="criticality: ignore (1)" size="1" pos="98" show="1" value="40"/>
                  <field name="per.open_type_length" showname="Open Type Length: 19" hide="yes" size="1" pos="99" show="19" value="13"/>
                  <field name="ngap.value_element" showname="value" size="19" pos="100" show="" value="">
                    <field name="per.choice_index" showname="Choice Index: 1" hide="yes" size="1" pos="100" show="1" value="50"/>
                    <field name="ngap.UserLocationInformation" showname="UserLocationInformation: userLocationInformationNR (1)" size="19" pos="100" show="1" value="5099f907000000010099f907000001e9b8cdaf">
                      <field name="ngap.userLocationInformationNR_element" showname="userLocationInformationNR" size="19" pos="100" show="" value="">
                        <field name="per.extension_bit" showname="..0. .... Extension Bit: False" hide="yes" size="1" pos="100" show="0" value="0" unmaskedvalue="50"/>
                        <field name="per.optional_field_bit" showname="...1 .... Optional Field Bit: True (timeStamp is present)" hide="yes" size="1" pos="100" show="1" value="1" unmaskedvalue="50"/>
                        <field name="per.optional_field_bit" showname=".... 0... Optional Field Bit: False (iE-Extensions is NOT present)" hide="yes" size="1" pos="100" show="0" value="0" unmaskedvalue="50"/>
                        <field name="ngap.nR_CGI_element" showname="nR-CGI" size="8" pos="100" show="" value="">
                          <field name="per.extension_bit" showname=".... .0.. Extension Bit: False" hide="yes" size="1" pos="100" show="0" value="0" unmaskedvalue="50"/>
                          <field name="per.optional_field_bit" showname=".... ..0. Optional Field Bit: False (iE-Extensions is NOT present)" hide="yes" size="1" pos="100" show="0" value="0" unmaskedvalue="50"/>
                          <field name="ngap.pLMNIdentity" showname="pLMNIdentity: 99f907" size="3" pos="101" show="99:f9:07" value="99f907">
                            <field name="e212.nrcgi.mcc" showname="Mobile Country Code (MCC): Private network (999)" size="2" pos="101" show="999" value="99f9"/>
                            <field name="e212.nrcgi.mnc" showname="Mobile Network Code (MNC): Unknown (70)" size="2" pos="102" show="70" value="f907"/>
                          </field>
                          <field name="ngap.NRCellIdentity" showname="nRCellIdentity: 0x0000000010" size="5" pos="100" show="0x0000000000000010" value="0000000100"/>
                        </field>
                        <field name="ngap.tAI_element" showname="tAI" size="7" pos="108" show="" value="">
                          <field name="per.extension_bit" showname=".... 0... Extension Bit: False" hide="yes" size="1" pos="108" show="0" value="0" unmaskedvalue="00"/>
                          <field name="per.optional_field_bit" showname=".... .0.. Optional Field Bit: False (iE-Extensions is NOT present)" hide="yes" size="1" pos="108" show="0" value="0" unmaskedvalue="00"/>
                          <field name="ngap.pLMNIdentity" showname="pLMNIdentity: 99f907" size="3" pos="109" show="99:f9:07" value="99f907">
                            <field name="e212.5gstai.mcc" showname="Mobile Country Code (MCC): Private network (999)" size="2" pos="109" show="999" value="99f9"/>
                            <field name="e212.5gstai.mnc" showname="Mobile Network Code (MNC): Unknown (70)" size="2" pos="110" show="70" value="f907"/>
                          </field>
                          <field name="ngap.tAC" showname="tAC: 1 (0x000001)" size="3" pos="112" show="1" value="000001"/>
                        </field>
                        <field name="ngap.timeStamp" showname="timeStamp: e9b8cdaf (Apr  4, 2024 06:56:47 UTC)" size="4" pos="115" show="e9:b8:cd:af" value="e9b8cdaf"/>
                      </field>
                    </field>
                  </field>
                </field>
              </field>
            </field>
          </field>
        </field>
      </field>
    </field>
  </proto>
  <proto name="sctp" showname="Stream Control Transmission Protocol" size="16" pos="122">
    <field name="filtered" value="sctp" />
  </proto>
  <proto name="ngap" showname="NG Application Protocol (UplinkNASTransport)" size="98" pos="138">
    <field name="per.extension_bit" showname="0... .... Extension Bit: False" hide="yes" size="1" pos="138" show="0" value="0" unmaskedvalue="00"/>
    <field name="per.choice_index" showname="Choice Index: 0" hide="yes" size="1" pos="138" show="0" value="00"/>
    <field name="ngap.NGAP_PDU" showname="NGAP-PDU: initiatingMessage (0)" size="98" pos="138" show="0" value="002e405e000004000a0002000400550002000100260034337e02ab345431027e00670100152e0101c1ffff91a12801007b000780000a00000d00120181220101250908696e7465726e6574007940135099f907000000010099f907000001e9b8cdaf">
      <field name="ngap.initiatingMessage_element" showname="initiatingMessage" size="98" pos="138" show="" value="">
        <field name="ngap.procedureCode" showname="procedureCode: id-UplinkNASTransport (46)" size="1" pos="139" show="46" value="2e"/>
        <field name="per.enum_index" showname="Enumerated Index: 1" hide="yes" size="1" pos="140" show="1" value="40"/>
        <field name="ngap.criticality" showname="criticality: ignore (1)" size="1" pos="140" show="1" value="40"/>
        <field name="per.open_type_length" showname="Open Type Length: 94" hide="yes" size="1" pos="141" show="94" value="5e"/>
        <field name="ngap.value_element" showname="value" size="94" pos="142" show="" value="">
          <field name="ngap.UplinkNASTransport_element" showname="UplinkNASTransport" size="94" pos="142" show="" value="">
            <field name="per.extension_bit" showname="0... .... Extension Bit: False" hide="yes" size="1" pos="142" show="0" value="0" unmaskedvalue="00"/>
            <field name="per.sequence_of_length" showname="Sequence-Of Length: 4" hide="yes" size="2" pos="143" show="4" value="0004"/>
            <field name="ngap.protocolIEs" showname="protocolIEs: 4 items" size="91" pos="145" show="4" value="000a0002000400550002000100260034337e02ab345431027e00670100152e0101c1ffff91a12801007b000780000a00000d00120181220101250908696e7465726e6574007940135099f907000000010099f907000001e9b8cdaf">
              <field name="" show="Item 0: id-AMF-UE-NGAP-ID" size="6" pos="145" value="000a00020004">
                <field name="ngap.ProtocolIE_Field_element" showname="ProtocolIE-Field" size="6" pos="145" show="" value="">
                  <field name="ngap.id" showname="id: id-AMF-UE-NGAP-ID (10)" size="2" pos="145" show="10" value="000a"/>
                  <field name="per.enum_index" showname="Enumerated Index: 0" hide="yes" size="1" pos="147" show="0" value="00"/>
                  <field name="ngap.criticality" showname="criticality: reject (0)" size="1" pos="147" show="0" value="00"/>
                  <field name="per.open_type_length" showname="Open Type Length: 2" hide="yes" size="1" pos="148" show="2" value="02"/>
                  <field name="ngap.value_element" showname="value" size="2" pos="149" show="" value="">
                    <field name="ngap.AMF_UE_NGAP_ID" showname="AMF-UE-NGAP-ID: 4" size="2" pos="149" show="4" value="0004"/>
                  </field>
                </field>
              </field>
              <field name="" show="Item 1: id-RAN-UE-NGAP-ID" size="6" pos="151" value="005500020001">
                <field name="ngap.ProtocolIE_Field_element" showname="ProtocolIE-Field" size="6" pos="151" show="" value="">
                  <field name="ngap.id" showname="id: id-RAN-UE-NGAP-ID (85)" size="2" pos="151" show="85" value="0055"/>
                  <field name="per.enum_index" showname="Enumerated Index: 0" hide="yes" size="1" pos="153" show="0" value="00"/>
                  <field name="ngap.criticality" showname="criticality: reject (0)" size="1" pos="153" show="0" value="00"/>
                  <field name="per.open_type_length" showname="Open Type Length: 2" hide="yes" size="1" pos="154" show="2" value="02"/>
                  <field name="ngap.value_element" showname="value" size="2" pos="155" show="" value="">
                    <field name="ngap.RAN_UE_NGAP_ID" showname="RAN-UE-NGAP-ID: 1" size="2" pos="155" show="1" value="0001"/>
                  </field>
                </field>
              </field>
              <field name="" show="Item 2: id-NAS-PDU" size="56" pos="157" value="00260034337e02ab345431027e00670100152e0101c1ffff91a12801007b000780000a00000d00120181220101250908696e7465726e6574">
                <field name="ngap.ProtocolIE_Field_element" showname="ProtocolIE-Field" size="56" pos="157" show="" value="">
                  <field name="ngap.id" showname="id: id-NAS-PDU (38)" size="2" pos="157" show="38" value="0026"/>
                  <field name="per.enum_index" showname="Enumerated Index: 0" hide="yes" size="1" pos="159" show="0" value="00"/>
                  <field name="ngap.criticality" showname="criticality: reject (0)" size="1" pos="159" show="0" value="00"/>
                  <field name="per.open_type_length" showname="Open Type Length: 52" hide="yes" size="1" pos="160" show="52" value="34"/>
                  <field name="ngap.value_element" showname="value" size="52" pos="161" show="" value="">
                    <field name="per.octet_string_length" showname="Octet String Length: 51" hide="yes" size="1" pos="161" show="51" value="33"/>
                    <field name="ngap.NAS_PDU" showname="NAS-PDU: 7e02ab345431027e00670100152e0101c1ffff91a12801007b000780000a00000d001201" size="51" pos="162" show="7e:02:ab:34:54:31:02:7e:00:67:01:00:15:2e:01:01:c1:ff:ff:91:a1:28:01:00:7b:00:07:80:00:0a:00:00:0d:00:12:01:81:22:01:01:25:09:08:69:6e:74:65:72:6e:65:74" value="7e02ab345431027e00670100152e0101c1ffff91a12801007b000780000a00000d00120181220101250908696e7465726e6574">
                      <proto name="nas-5gs" showname="Non-Access-Stratum 5GS (NAS)PDU" size="51" pos="162">
                        <field name="" show="Security protected NAS 5GS message" size="7" pos="162" value="7e02ab34543102">
                          <field name="nas_5gs.epd" showname="Extended protocol discriminator: 5G mobility management messages (126)" size="1" pos="162" show="126" value="7e"/>
                          <field name="nas_5gs.spare_half_octet" showname="0000 .... = Spare Half Octet: 0" size="1" pos="163" show="0" value="0" unmaskedvalue="02"/>
                          <field name="nas_5gs.security_header_type" showname=".... 0010 = Security header type: Integrity protected and ciphered (2)" size="1" pos="163" show="2" value="2" unmaskedvalue="02"/>
                          <field name="nas_5gs.msg_auth_code" showname="Message authentication code: 0xab345431" size="4" pos="164" show="0xab345431" value="ab345431"/>
                          <field name="nas_5gs.seq_no" showname="Sequence number: 2" size="1" pos="168" show="2" value="02"/>
                        </field>
                        <field name="" show="Plain NAS 5GS Message" size="44" pos="169" value="7e00670100152e0101c1ffff91a12801007b000780000a00000d00120181220101250908696e7465726e6574">
                          <field name="nas_5gs.epd" showname="Extended protocol discriminator: 5G mobility management messages (126)" size="1" pos="169" show="126" value="7e"/>
                          <field name="nas_5gs.spare_half_octet" showname="0000 .... = Spare Half Octet: 0" size="1" pos="170" show="0" value="0" unmaskedvalue="00"/>
                          <field name="nas_5gs.security_header_type" showname=".... 0000 = Security header type: Plain NAS message, not security protected (0)" size="1" pos="170" show="0" value="0" unmaskedvalue="00"/>
                          <field name="nas_5gs.mm.message_type" showname="Message type: UL NAS transport (0x67)" size="1" pos="171" show="0x67" value="67"/>
                          <field name="nas_5gs.spare_half_octet" showname="0000 .... = Spare Half Octet: 0" size="1" pos="172" show="0" value="0" unmaskedvalue="01"/>
                          <field name="" show="Payload container type" size="1" pos="172" value="01">
                            <field name="nas_5gs.mm.pld_cont_type" showname=".... 0001 = Payload container type: N1 SM information (1)" size="1" pos="172" show="1" value="1" unmaskedvalue="01"/>
                          </field>
                          <field name="" show="Payload container" size="23" pos="173" value="00152e0101c1ffff91a12801007b000780000a00000d00">
                            <field name="gsm_a.len" showname="Length: 21" size="2" pos="173" show="21" value="0015"/>
                            <field name="" show="Plain NAS 5GS Message" size="21" pos="175" value="2e0101c1ffff91a12801007b000780000a00000d00">
                              <field name="nas_5gs.epd" showname="Extended protocol discriminator: 5G session management messages (46)" size="1" pos="175" show="46" value="2e"/>
                              <field name="nas_5gs.pdu_session_id" showname="PDU session identity: PDU session identity value 1 (1)" size="1" pos="176" show="1" value="01"/>
                              <field name="nas_5gs.proc_trans_id" showname="Procedure transaction identity: 1" size="1" pos="177" show="1" value="01"/>
                              <field name="nas_5gs.sm.message_type" showname="Message type: PDU session establishment request (0xc1)" size="1" pos="178" show="0xc1" value="c1"/>
                              <field name="" show="Integrity protection maximum data rate" size="2" pos="179" value="ffff">
                                <field name="nas_5gs.sm.int_prot_max_data_rate_ul" showname="Integrity protection maximum data rate for uplink: Full data rate (255)" size="1" pos="179" show="255" value="ff"/>
                                <field name="nas_5gs.sm.int_prot_max_data_rate_dl" showname="Integrity protection maximum data rate for downlink: Full data rate (255)" size="1" pos="180" show="255" value="ff"/>
                              </field>
                              <field name="" show="PDU session type" size="1" pos="181" value="91">
                                <field name="gsm_a.common.elem_id" showname="1001 .... = Element ID: 0x9-" size="1" pos="181" show="0x09" value="9" unmaskedvalue="91"/>
                                <field name="nas_5gs.sm.pdu_session_type" showname=".... .001 = PDU session type: IPv4 (1)" size="1" pos="181" show="1" value="1" unmaskedvalue="91"/>
                              </field>
                              <field name="" show="SSC mode" size="1" pos="182" value="a1">
                                <field name="gsm_a.common.elem_id" showname="1010 .... = Element ID: 0xa-" size="1" pos="182" show="0x0a" value="A" unmaskedvalue="a1"/>
                                <field name="nas_5gs.sm.sc_mode" showname=".... .001 = SSC mode: SSC mode 1 (1)" size="1" pos="182" show="1" value="1" unmaskedvalue="a1"/>
                              </field>
                              <field name="" show="5GSM capability" size="3" pos="183" value="280100">
                                <field name="nas_5gs.sm.elem_id" showname="Element ID: 0x28" size="1" pos="183" show="0x28" value="28"/>
                                <field name="gsm_a.len" showname="Length: 1" size="1" pos="184" show="1" value="01"/>
                                <field name="nas_5gs.sm.tpmic" showname="0... .... = Transfer of port management information containers (TPMIC): Not supported" size="1" pos="185" show="0" value="0" unmaskedvalue="00"/>
                                <field name="nas_5gs.sm.atsss_st" showname=".000 0... = Supported ATSSS steering functionalities and steering modes (ATSSS-ST): ATSSS not supported (0)" size="1" pos="185" show="0" value="0" unmaskedvalue="00"/>
                                <field name="nas_5gs.sm.ept_s1" showname=".... .0.. = Ethernet PDN type in S1 mode (EPT-S1): Not supported" size="1" pos="185" show="0" value="0" unmaskedvalue="00"/>
                                <field name="nas_5gs.sm.mh6_pdu" showname=".... ..0. = Multi-homed IPv6 PDU session (MH6-PDU): Not supported" size="1" pos="185" show="0" value="0" unmaskedvalue="00"/>
                                <field name="nas_5gs.sm.rqos" showname=".... ...0 = Reflective QoS (RqoS): Not supported" size="1" pos="185" show="0" value="0" unmaskedvalue="00"/>
                              </field>
                              <field name="" show="Extended protocol configuration options" size="10" pos="186" value="7b000780000a00000d00">
                                <field name="nas_eps.esm.elem_id" showname="Element ID: 0x7b" size="1" pos="186" show="0x7b" value="7b"/>
                                <field name="gsm_a.len" showname="Length: 7" size="2" pos="187" show="7" value="0007"/>
                                <field name="gsm_a.gm.sm.link_dir" showname="Link direction: MS to network (0)" size="0" pos="189" show="0"/>
                                <field name="gsm_a.gm.sm.ext" showname="1... .... = Extension: True" size="1" pos="189" show="1" value="1" unmaskedvalue="80"/>
                                <field name="gsm_a.gm.configuration_protocol" showname=".... .000 = Configuration Protocol: PPP for use with IP PDP type or IP PDN type (0)" size="1" pos="189" show="0" value="0" unmaskedvalue="80"/>
                                <field name="gsm_a.gm.sm.pco_pid" showname="Protocol or Container ID: IP address allocation via NAS signalling (0x000a)" size="2" pos="190" show="0x000a" value="000a">
                                  <field name="gsm_a.gm.sm.pco.length" showname="Length: 0x00 (0)" size="1" pos="192" show="0x00" value="00"/>
                                </field>
                                <field name="gsm_a.gm.sm.pco_pid" showname="Protocol or Container ID: DNS Server IPv4 Address Request (0x000d)" size="2" pos="193" show="0x000d" value="000d">
                                  <field name="gsm_a.gm.sm.pco.length" showname="Length: 0x00 (0)" size="1" pos="195" show="0x00" value="00"/>
                                </field>
                              </field>
                            </field>
                          </field>
                          <field name="" show="PDU session identity 2 - PDU session ID" size="2" pos="196" value="1201">
                            <field name="nas_5gs.mm.elem_id" showname="Element ID: 0x12" size="1" pos="196" show="0x12" value="12"/>
                            <field name="nas_5gs.pdu_session_id" showname="PDU session identity: PDU session identity value 1 (1)" size="1" pos="197" show="1" value="01"/>
                          </field>
                          <field name="" show="Request type" size="1" pos="198" value="81">
                            <field name="gsm_a.common.elem_id" showname="1000 .... = Element ID: 0x8-" size="1" pos="198" show="0x08" value="8" unmaskedvalue="81"/>
                            <field name="nas_5gs.mm.req_type" showname=".... .001 = Request type: Initial request (1)" size="1" pos="198" show="1" value="1" unmaskedvalue="81"/>
                          </field>
                          <field name="" show="S-NSSAI" size="3" pos="199" value="220101">
                            <field name="nas_5gs.common.elem_id" showname="Element ID: 0x22" size="1" pos="199" show="0x22" value="22"/>
                            <field name="gsm_a.len" showname="Length: 1" size="1" pos="200" show="1" value="01"/>
                            <field name="nas_5gs.mm.sst" showname="Slice/service type (SST): eMBB (1)" size="1" pos="201" show="1" value="01"/>
                          </field>
                          <field name="" show="DNN" size="11" pos="202" value="250908696e7465726e6574">
                            <field name="nas_5gs.common.elem_id" showname="Element ID: 0x25" size="1" pos="202" show="0x25" value="25"/>
                            <field name="gsm_a.len" showname="Length: 9" size="1" pos="203" show="9" value="09"/>
                            <field name="nas_5gs.cmn.dnn" showname="DNN: internet" size="9" pos="204" show="internet" value="08696e7465726e6574"/>
                          </field>
                        </field>
                      </proto>
                    </field>
                  </field>
                </field>
              </field>
              <field name="" show="Item 3: id-UserLocationInformation" size="23" pos="213" value="007940135099f907000000010099f907000001e9b8cdaf">
                <field name="ngap.ProtocolIE_Field_element" showname="ProtocolIE-Field" size="23" pos="213" show="" value="">
                  <field name="ngap.id" showname="id: id-UserLocationInformation (121)" size="2" pos="213" show="121" value="0079"/>
                  <field name="per.enum_index" showname="Enumerated Index: 1" hide="yes" size="1" pos="215" show="1" value="40"/>
                  <field name="ngap.criticality" showname="criticality: ignore (1)" size="1" pos="215" show="1" value="40"/>
                  <field name="per.open_type_length" showname="Open Type Length: 19" hide="yes" size="1" pos="216" show="19" value="13"/>
                  <field name="ngap.value_element" showname="value" size="19" pos="217" show="" value="">
                    <field name="per.choice_index" showname="Choice Index: 1" hide="yes" size="1" pos="217" show="1" value="50"/>
                    <field name="ngap.UserLocationInformation" showname="UserLocationInformation: userLocationInformationNR (1)" size="19" pos="217" show="1" value="5099f907000000010099f907000001e9b8cdaf">
                      <field name="ngap.userLocationInformationNR_element" showname="userLocationInformationNR" size="19" pos="217" show="" value="">
                        <field name="per.extension_bit" showname="..0. .... Extension Bit: False" hide="yes" size="1" pos="217" show="0" value="0" unmaskedvalue="50"/>
                        <field name="per.optional_field_bit" showname="...1 .... Optional Field Bit: True (timeStamp is present)" hide="yes" size="1" pos="217" show="1" value="1" unmaskedvalue="50"/>
                        <field name="per.optional_field_bit" showname=".... 0... Optional Field Bit: False (iE-Extensions is NOT present)" hide="yes" size="1" pos="217" show="0" value="0" unmaskedvalue="50"/>
                        <field name="ngap.nR_CGI_element" showname="nR-CGI" size="8" pos="217" show="" value="">
                          <field name="per.extension_bit" showname=".... .0.. Extension Bit: False" hide="yes" size="1" pos="217" show="0" value="0" unmaskedvalue="50"/>
                          <field name="per.optional_field_bit" showname=".... ..0. Optional Field Bit: False (iE-Extensions is NOT present)" hide="yes" size="1" pos="217" show="0" value="0" unmaskedvalue="50"/>
                          <field name="ngap.pLMNIdentity" showname="pLMNIdentity: 99f907" size="3" pos="218" show="99:f9:07" value="99f907">
                            <field name="e212.nrcgi.mcc" showname="Mobile Country Code (MCC): Private network (999)" size="2" pos="218" show="999" value="99f9"/>
                            <field name="e212.nrcgi.mnc" showname="Mobile Network Code (MNC): Unknown (70)" size="2" pos="219" show="70" value="f907"/>
                          </field>
                          <field name="ngap.NRCellIdentity" showname="nRCellIdentity: 0x0000000010" size="5" pos="217" show="0x0000000000000010" value="0000000100"/>
                        </field>
                        <field name="ngap.tAI_element" showname="tAI" size="7" pos="225" show="" value="">
                          <field name="per.extension_bit" showname=".... 0... Extension Bit: False" hide="yes" size="1" pos="225" show="0" value="0" unmaskedvalue="00"/>
                          <field name="per.optional_field_bit" showname=".... .0.. Optional Field Bit: False (iE-Extensions is NOT present)" hide="yes" size="1" pos="225" show="0" value="0" unmaskedvalue="00"/>
                          <field name="ngap.pLMNIdentity" showname="pLMNIdentity: 99f907" size="3" pos="226" show="99:f9:07" value="99f907">
                            <field name="e212.5gstai.mcc" showname="Mobile Country Code (MCC): Private network (999)" size="2" pos="226" show="999" value="99f9"/>
                            <field name="e212.5gstai.mnc" showname="Mobile Network Code (MNC): Unknown (70)" size="2" pos="227" show="70" value="f907"/>
                          </field>
                          <field name="ngap.tAC" showname="tAC: 1 (0x000001)" size="3" pos="229" show="1" value="000001"/>
                        </field>
                        <field name="ngap.timeStamp" showname="timeStamp: e9b8cdaf (Apr  4, 2024 06:56:47 UTC)" size="4" pos="232" show="e9:b8:cd:af" value="e9b8cdaf"/>
                      </field>
                    </field>
                  </field>
                </field>
              </field>
            </field>
          </field>
        </field>
      </field>
    </field>
  </proto>
</packet>


<packet>
  <proto name="geninfo" pos="0" showname="General information" size="154">
    <field name="num" pos="0" show="26" showname="Number" value="1a" size="154"/>
    <field name="len" pos="0" show="154" showname="Frame Length" value="9a" size="154"/>
    <field name="caplen" pos="0" show="154" showname="Captured Length" value="9a" size="154"/>
    <field name="timestamp" pos="0" show="Apr  4, 2024 12:26:48.223966000 IST" showname="Captured Time" value="1712213808.223966000" size="154"/>
  </proto>
  <proto name="frame" showname="Frame 26: 154 bytes on wire (1232 bits), 154 bytes captured (1232 bits) on interface bridge104, id 0" size="154" pos="0">
    <field name="filtered" value="frame" />
  </proto>
  <proto name="eth" showname="Ethernet II, Src: 00:1c:42:16:da:82, Dst: 00:1c:42:45:12:08" size="14" pos="0">
    <field name="filtered" value="eth" />
  </proto>
  <proto name="ip" showname="Internet Protocol Version 4, Src: 192.168.56.100, Dst: 192.168.56.120" size="20" pos="14">
    <field name="filtered" value="ip" />
  </proto>
  <proto name="sctp" showname="Stream Control Transmission Protocol, Src Port: 38412 (38412), Dst Port: 59338 (59338)" size="44" pos="34">
    <field name="filtered" value="sctp" />
  </proto>
  <proto name="ngap" showname="NG Application Protocol (DownlinkNASTransport)" size="75" pos="78">
    <field name="per.extension_bit" showname="0... .... Extension Bit: False" hide="yes" size="1" pos="78" show="0" value="0" unmaskedvalue="00"/>
    <field name="per.choice_index" showname="Choice Index: 0" hide="yes" size="1" pos="78" show="0" value="00"/>
    <field name="ngap.NGAP_PDU" showname="NGAP-PDU: initiatingMessage (0)" size="75" pos="78" show="0" value="00044047000003000a0002000400550002000100260034337e02ba2f641a027e0054430f90004f00700065006e003500470053450990004e006500780074460a474240406065840a490101">
      <field name="ngap.initiatingMessage_element" showname="initiatingMessage" size="75" pos="78" show="" value="">
        <field name="ngap.procedureCode" showname="procedureCode: id-DownlinkNASTransport (4)" size="1" pos="79" show="4" value="04"/>
        <field name="per.enum_index" showname="Enumerated Index: 1" hide="yes" size="1" pos="80" show="1" value="40"/>
        <field name="ngap.criticality" showname="criticality: ignore (1)" size="1" pos="80" show="1" value="40"/>
        <field name="per.open_type_length" showname="Open Type Length: 71" hide="yes" size="1" pos="81" show="71" value="47"/>
        <field name="ngap.value_element" showname="value" size="71" pos="82" show="" value="">
          <field name="ngap.DownlinkNASTransport_element" showname="DownlinkNASTransport" size="71" pos="82" show="" value="">
            <field name="per.extension_bit" showname="0... .... Extension Bit: False" hide="yes" size="1" pos="82" show="0" value="0" unmaskedvalue="00"/>
            <field name="per.sequence_of_length" showname="Sequence-Of Length: 3" hide="yes" size="2" pos="83" show="3" value="0003"/>
            <field name="ngap.protocolIEs" showname="protocolIEs: 3 items" size="68" pos="85" show="3" value="000a0002000400550002000100260034337e02ba2f641a027e0054430f90004f00700065006e003500470053450990004e006500780074460a474240406065840a490101">
              <field name="" show="Item 0: id-AMF-UE-NGAP-ID" size="6" pos="85" value="000a00020004">
                <field name="ngap.ProtocolIE_Field_element" showname="ProtocolIE-Field" size="6" pos="85" show="" value="">
                  <field name="ngap.id" showname="id: id-AMF-UE-NGAP-ID (10)" size="2" pos="85" show="10" value="000a"/>
                  <field name="per.enum_index" showname="Enumerated Index: 0" hide="yes" size="1" pos="87" show="0" value="00"/>
                  <field name="ngap.criticality" showname="criticality: reject (0)" size="1" pos="87" show="0" value="00"/>
                  <field name="per.open_type_length" showname="Open Type Length: 2" hide="yes" size="1" pos="88" show="2" value="02"/>
                  <field name="ngap.value_element" showname="value" size="2" pos="89" show="" value="">
                    <field name="ngap.AMF_UE_NGAP_ID" showname="AMF-UE-NGAP-ID: 4" size="2" pos="89" show="4" value="0004"/>
                  </field>
                </field>
              </field>
              <field name="" show="Item 1: id-RAN-UE-NGAP-ID" size="6" pos="91" value="005500020001">
                <field name="ngap.ProtocolIE_Field_element" showname="ProtocolIE-Field" size="6" pos="91" show="" value="">
                  <field name="ngap.id" showname="id: id-RAN-UE-NGAP-ID (85)" size="2" pos="91" show="85" value="0055"/>
                  <field name="per.enum_index" showname="Enumerated Index: 0" hide="yes" size="1" pos="93" show="0" value="00"/>
                  <field name="ngap.criticality" showname="criticality: reject (0)" size="1" pos="93" show="0" value="00"/>
                  <field name="per.open_type_length" showname="Open Type Length: 2" hide="yes" size="1" pos="94" show="2" value="02"/>
                  <field name="ngap.value_element" showname="value" size="2" pos="95" show="" value="">
                    <field name="ngap.RAN_UE_NGAP_ID" showname="RAN-UE-NGAP-ID: 1" size="2" pos="95" show="1" value="0001"/>
                  </field>
                </field>
              </field>
              <field name="" show="Item 2: id-NAS-PDU" size="56" pos="97" value="00260034337e02ba2f641a027e0054430f90004f00700065006e003500470053450990004e006500780074460a474240406065840a490101">
                <field name="ngap.ProtocolIE_Field_element" showname="ProtocolIE-Field" size="56" pos="97" show="" value="">
                  <field name="ngap.id" showname="id: id-NAS-PDU (38)" size="2" pos="97" show="38" value="0026"/>
                  <field name="per.enum_index" showname="Enumerated Index: 0" hide="yes" size="1" pos="99" show="0" value="00"/>
                  <field name="ngap.criticality" showname="criticality: reject (0)" size="1" pos="99" show="0" value="00"/>
                  <field name="per.open_type_length" showname="Open Type Length: 52" hide="yes" size="1" pos="100" show="52" value="34"/>
                  <field name="ngap.value_element" showname="value" size="52" pos="101" show="" value="">
                    <field name="per.octet_string_length" showname="Octet String Length: 51" hide="yes" size="1" pos="101" show="51" value="33"/>
                    <field name="ngap.NAS_PDU" showname="NAS-PDU: 7e02ba2f641a027e0054430f90004f00700065006e003500470053450990004e00650078" size="51" pos="102" show="7e:02:ba:2f:64:1a:02:7e:00:54:43:0f:90:00:4f:00:70:00:65:00:6e:00:35:00:47:00:53:45:09:90:00:4e:00:65:00:78:00:74:46:0a:47:42:40:40:60:65:84:0a:49:01:01" value="7e02ba2f641a027e0054430f90004f00700065006e003500470053450990004e006500780074460a474240406065840a490101">
                      <proto name="nas-5gs" showname="Non-Access-Stratum 5GS (NAS)PDU" size="51" pos="102">
                        <field name="" show="Security protected NAS 5GS message" size="7" pos="102" value="7e02ba2f641a02">
                          <field name="nas_5gs.epd" showname="Extended protocol discriminator: 5G mobility management messages (126)" size="1" pos="102" show="126" value="7e"/>
                          <field name="nas_5gs.spare_half_octet" showname="0000 .... = Spare Half Octet: 0" size="1" pos="103" show="0" value="0" unmaskedvalue="02"/>
                          <field name="nas_5gs.security_header_type" showname=".... 0010 = Security header type: Integrity protected and ciphered (2)" size="1" pos="103" show="2" value="2" unmaskedvalue="02"/>
                          <field name="nas_5gs.msg_auth_code" showname="Message authentication code: 0xba2f641a" size="4" pos="104" show="0xba2f641a" value="ba2f641a"/>
                          <field name="nas_5gs.seq_no" showname="Sequence number: 2" size="1" pos="108" show="2" value="02"/>
                        </field>
                        <field name="" show="Plain NAS 5GS Message" size="44" pos="109" value="7e0054430f90004f00700065006e003500470053450990004e006500780074460a474240406065840a490101">
                          <field name="nas_5gs.epd" showname="Extended protocol discriminator: 5G mobility management messages (126)" size="1" pos="109" show="126" value="7e"/>
                          <field name="nas_5gs.spare_half_octet" showname="0000 .... = Spare Half Octet: 0" size="1" pos="110" show="0" value="0" unmaskedvalue="00"/>
                          <field name="nas_5gs.security_header_type" showname=".... 0000 = Security header type: Plain NAS message, not security protected (0)" size="1" pos="110" show="0" value="0" unmaskedvalue="00"/>
                          <field name="nas_5gs.mm.message_type" showname="Message type: Configuration update command (0x54)" size="1" pos="111" show="0x54" value="54"/>
                          <field name="" show="Network Name - Full name for network" size="17" pos="112" value="430f90004f00700065006e003500470053">
                            <field name="gsm_a.dtap.elem_id" showname="Element ID: 0x43" size="1" pos="112" show="0x43" value="43"/>
                            <field name="gsm_a.len" showname="Length: 15" size="1" pos="113" show="15" value="0f"/>
                            <field name="gsm_a.extension" showname="1... .... = Extension: No Extension" size="1" pos="114" show="1" value="1" unmaskedvalue="90"/>
                            <field name="gsm_a.dtap.coding_scheme" showname=".001 .... = Coding Scheme: UCS2 (16 bit) (1)" size="1" pos="114" show="1" value="1" unmaskedvalue="90"/>
                            <field name="gsm_a.dtap.add_ci" showname=".... 0... = Add CI: The MS should not add the letters for the Country&#x27;s Initials to the text string" size="1" pos="114" show="0" value="0" unmaskedvalue="90"/>
                            <field name="gsm_a.dtap.number_of_spare_bits" showname=".... .000 = Number of spare bits in last octet: this field carries no information about the number of spare bits in octet n (0)" size="1" pos="114" show="0" value="0" unmaskedvalue="90"/>
                            <field name="gsm_a.dtap.text_string" showname="Text String: Open5GS" size="14" pos="115" show="Open5GS" value="004f00700065006e003500470053"/>
                          </field>
                          <field name="" show="Network Name - Short Name" size="11" pos="129" value="450990004e006500780074">
                            <field name="gsm_a.dtap.elem_id" showname="Element ID: 0x45" size="1" pos="129" show="0x45" value="45"/>
                            <field name="gsm_a.len" showname="Length: 9" size="1" pos="130" show="9" value="09"/>
                            <field name="gsm_a.extension" showname="1... .... = Extension: No Extension" size="1" pos="131" show="1" value="1" unmaskedvalue="90"/>
                            <field name="gsm_a.dtap.coding_scheme" showname=".001 .... = Coding Scheme: UCS2 (16 bit) (1)" size="1" pos="131" show="1" value="1" unmaskedvalue="90"/>
                            <field name="gsm_a.dtap.add_ci" showname=".... 0... = Add CI: The MS should not add the letters for the Country&#x27;s Initials to the text string" size="1" pos="131" show="0" value="0" unmaskedvalue="90"/>
                            <field name="gsm_a.dtap.number_of_spare_bits" showname=".... .000 = Number of spare bits in last octet: this field carries no information about the number of spare bits in octet n (0)" size="1" pos="131" show="0" value="0" unmaskedvalue="90"/>
                            <field name="gsm_a.dtap.text_string" showname="Text String: Next" size="8" pos="132" show="Next" value="004e006500780074"/>
                          </field>
                          <field name="" show="Time Zone - Local" size="2" pos="140" value="460a">
                            <field name="gsm_a.dtap.elem_id" showname="Element ID: 0x46" size="1" pos="140" show="0x46" value="46"/>
                            <field name="gsm_a.dtap.timezone" showname="Timezone: GMT - 5 hours 0 minutes" size="1" pos="141" show="0x14" value="0a"/>
                          </field>
                          <field name="" show="Time Zone and Time - Universal Time and Local Time Zone" size="8" pos="142" value="474240406065840a">
                            <field name="gsm_a.dtap.elem_id" showname="Element ID: 0x47" size="1" pos="142" show="0x47" value="47"/>
                            <field name="gsm_a.dtap.time_zone_time" showname="Time: Apr  4, 2024 06:56:48.000000000" size="6" pos="143" show="Apr  4, 2024 01:26:48.000000000 UTC" value="424040606584"/>
                            <field name="gsm_a.dtap.timezone" showname="Timezone: GMT - 5 hours 0 minutes" size="1" pos="149" show="0x14" value="0a"/>
                          </field>
                          <field name="" show="Daylight Saving Time" size="3" pos="150" value="490101">
                            <field name="gsm_a.dtap.elem_id" showname="Element ID: 0x49" size="1" pos="150" show="0x49" value="49"/>
                            <field name="gsm_a.len" showname="Length: 1" size="1" pos="151" show="1" value="01"/>
                            <field name="gsm_a.spare_bits" showname="0000 00.. = Spare bit(s): 0" size="1" pos="152" show="0" value="01"/>
                            <field name="gsm_a.dtap.dst_adjustment" showname=".... ..01 = DST Adjustment: +1 hour adjustment for Daylight Saving Time (1)" size="1" pos="152" show="1" value="1" unmaskedvalue="01"/>
                          </field>
                        </field>
                      </proto>
                    </field>
                  </field>
                </field>
              </field>
            </field>
          </field>
        </field>
      </field>
    </field>
  </proto>
</packet>


<packet>
  <proto name="geninfo" pos="0" showname="General information" size="242">
    <field name="num" pos="0" show="27" showname="Number" value="1b" size="242"/>
    <field name="len" pos="0" show="242" showname="Frame Length" value="f2" size="242"/>
    <field name="caplen" pos="0" show="242" showname="Captured Length" value="f2" size="242"/>
    <field name="timestamp" pos="0" show="Apr  4, 2024 12:26:48.254282000 IST" showname="Captured Time" value="1712213808.254282000" size="242"/>
  </proto>
  <proto name="frame" showname="Frame 27: 242 bytes on wire (1936 bits), 242 bytes captured (1936 bits) on interface bridge104, id 0" size="242" pos="0">
    <field name="filtered" value="frame" />
  </proto>
  <proto name="eth" showname="Ethernet II, Src: 00:1c:42:16:da:82, Dst: 00:1c:42:45:12:08" size="14" pos="0">
    <field name="filtered" value="eth" />
  </proto>
  <proto name="ip" showname="Internet Protocol Version 4, Src: 192.168.56.100, Dst: 192.168.56.120" size="20" pos="14">
    <field name="filtered" value="ip" />
  </proto>
  <proto name="sctp" showname="Stream Control Transmission Protocol, Src Port: 38412 (38412), Dst Port: 59338 (59338)" size="28" pos="34">
    <field name="filtered" value="sctp" />
  </proto>
  <proto name="ngap" showname="NG Application Protocol (PDUSessionResourceSetupRequest)" size="179" pos="62">
    <field name="per.extension_bit" showname="0... .... Extension Bit: False" hide="yes" size="1" pos="62" show="0" value="0" unmaskedvalue="00"/>
    <field name="per.choice_index" showname="Choice Index: 0" hide="yes" size="1" pos="62" show="0" value="00"/>
    <field name="ngap.NGAP_PDU" showname="NGAP-PDU: initiatingMessage (0)" size="179" pos="62" show="0" value="001d0080ae000004000a00020004005500020001004a00808c004001567e024fe79c07037e00680100472e0101c211000901000631310101ff010603f42403f4242905010a2d00022201017900060120410101097b000f80000d0408080808000d0408080404250908696e7465726e6574120100202f0000040082000a0c3b9aca00303b9aca00008b000a01f0c0a8386400006d1b00860001000088000700010000091c40006e400a0c3b9aca00303b9aca00">
      <field name="ngap.initiatingMessage_element" showname="initiatingMessage" size="179" pos="62" show="" value="">
        <field name="ngap.procedureCode" showname="procedureCode: id-PDUSessionResourceSetup (29)" size="1" pos="63" show="29" value="1d"/>
        <field name="per.enum_index" showname="Enumerated Index: 0" hide="yes" size="1" pos="64" show="0" value="00"/>
        <field name="ngap.criticality" showname="criticality: reject (0)" size="1" pos="64" show="0" value="00"/>
        <field name="per.open_type_length" showname="Open Type Length: 174" hide="yes" size="2" pos="65" show="174" value="80ae"/>
        <field name="ngap.value_element" showname="value" size="174" pos="67" show="" value="">
          <field name="ngap.PDUSessionResourceSetupRequest_element" showname="PDUSessionResourceSetupRequest" size="174" pos="67" show="" value="">
            <field name="per.extension_bit" showname="0... .... Extension Bit: False" hide="yes" size="1" pos="67" show="0" value="0" unmaskedvalue="00"/>
            <field name="per.sequence_of_length" showname="Sequence-Of Length: 4" hide="yes" size="2" pos="68" show="4" value="0004"/>
            <field name="ngap.protocolIEs" showname="protocolIEs: 4 items" size="171" pos="70" show="4" value="000a00020004005500020001004a00808c004001567e024fe79c07037e00680100472e0101c211000901000631310101ff010603f42403f4242905010a2d00022201017900060120410101097b000f80000d0408080808000d0408080404250908696e7465726e6574120100202f0000040082000a0c3b9aca00303b9aca00008b000a01f0c0a8386400006d1b00860001000088000700010000091c40006e400a0c3b9aca00303b9aca00">
              <field name="" show="Item 0: id-AMF-UE-NGAP-ID" size="6" pos="70" value="000a00020004">
                <field name="ngap.ProtocolIE_Field_element" showname="ProtocolIE-Field" size="6" pos="70" show="" value="">
                  <field name="ngap.id" showname="id: id-AMF-UE-NGAP-ID (10)" size="2" pos="70" show="10" value="000a"/>
                  <field name="per.enum_index" showname="Enumerated Index: 0" hide="yes" size="1" pos="72" show="0" value="00"/>
                  <field name="ngap.criticality" showname="criticality: reject (0)" size="1" pos="72" show="0" value="00"/>
                  <field name="per.open_type_length" showname="Open Type Length: 2" hide="yes" size="1" pos="73" show="2" value="02"/>
                  <field name="ngap.value_element" showname="value" size="2" pos="74" show="" value="">
                    <field name="ngap.AMF_UE_NGAP_ID" showname="AMF-UE-NGAP-ID: 4" size="2" pos="74" show="4" value="0004"/>
                  </field>
                </field>
              </field>
              <field name="" show="Item 1: id-RAN-UE-NGAP-ID" size="6" pos="76" value="005500020001">
                <field name="ngap.ProtocolIE_Field_element" showname="ProtocolIE-Field" size="6" pos="76" show="" value="">
                  <field name="ngap.id" showname="id: id-RAN-UE-NGAP-ID (85)" size="2" pos="76" show="85" value="0055"/>
                  <field name="per.enum_index" showname="Enumerated Index: 0" hide="yes" size="1" pos="78" show="0" value="00"/>
                  <field name="ngap.criticality" showname="criticality: reject (0)" size="1" pos="78" show="0" value="00"/>
                  <field name="per.open_type_length" showname="Open Type Length: 2" hide="yes" size="1" pos="79" show="2" value="02"/>
                  <field name="ngap.value_element" showname="value" size="2" pos="80" show="" value="">
                    <field name="ngap.RAN_UE_NGAP_ID" showname="RAN-UE-NGAP-ID: 1" size="2" pos="80" show="1" value="0001"/>
                  </field>
                </field>
              </field>
              <field name="" show="Item 2: id-PDUSessionResourceSetupListSUReq" size="145" pos="82" value="004a00808c004001567e024fe79c07037e00680100472e0101c211000901000631310101ff010603f42403f4242905010a2d00022201017900060120410101097b000f80000d0408080808000d0408080404250908696e7465726e6574120100202f0000040082000a0c3b9aca00303b9aca00008b000a01f0c0a8386400006d1b00860001000088000700010000091c40">
                <field name="ngap.ProtocolIE_Field_element" showname="ProtocolIE-Field" size="145" pos="82" show="" value="">
                  <field name="ngap.id" showname="id: id-PDUSessionResourceSetupListSUReq (74)" size="2" pos="82" show="74" value="004a"/>
                  <field name="per.enum_index" showname="Enumerated Index: 0" hide="yes" size="1" pos="84" show="0" value="00"/>
                  <field name="ngap.criticality" showname="criticality: reject (0)" size="1" pos="84" show="0" value="00"/>
                  <field name="per.open_type_length" showname="Open Type Length: 140" hide="yes" size="2" pos="85" show="140" value="808c"/>
                  <field name="ngap.value_element" showname="value" size="140" pos="87" show="" value="">
                    <field name="per.sequence_of_length" showname="Sequence-Of Length: 1" hide="yes" size="1" pos="87" show="1" value="00"/>
                    <field name="ngap.PDUSessionResourceSetupListSUReq" showname="PDUSessionResourceSetupListSUReq: 1 item" size="139" pos="88" show="1" value="4001567e024fe79c07037e00680100472e0101c211000901000631310101ff010603f42403f4242905010a2d00022201017900060120410101097b000f80000d0408080808000d0408080404250908696e7465726e6574120100202f0000040082000a0c3b9aca00303b9aca00008b000a01f0c0a8386400006d1b00860001000088000700010000091c40">
                      <field name="" show="Item 0" size="139" pos="88" value="4001567e024fe79c07037e00680100472e0101c211000901000631310101ff010603f42403f4242905010a2d00022201017900060120410101097b000f80000d0408080808000d0408080404250908696e7465726e6574120100202f0000040082000a0c3b9aca00303b9aca00008b000a01f0c0a8386400006d1b00860001000088000700010000091c40">
                        <field name="ngap.PDUSessionResourceSetupItemSUReq_element" showname="PDUSessionResourceSetupItemSUReq" size="139" pos="88" show="" value="">
                          <field name="per.extension_bit" showname="0... .... Extension Bit: False" hide="yes" size="1" pos="88" show="0" value="0" unmaskedvalue="40"/>
                          <field name="per.optional_field_bit" showname=".1.. .... Optional Field Bit: True (pDUSessionNAS-PDU is present)" hide="yes" size="1" pos="88" show="1" value="1" unmaskedvalue="40"/>
                          <field name="per.optional_field_bit" showname="..0. .... Optional Field Bit: False (iE-Extensions is NOT present)" hide="yes" size="1" pos="88" show="0" value="0" unmaskedvalue="40"/>
                          <field name="ngap.pDUSessionID" showname="pDUSessionID: 1" size="1" pos="89" show="1" value="01"/>
                          <field name="per.octet_string_length" showname="Octet String Length: 86" hide="yes" size="1" pos="90" show="86" value="56"/>
                          <field name="ngap.pDUSessionNAS_PDU" showname="pDUSessionNAS-PDU: 7e024fe79c07037e00680100472e0101c211000901000631310101ff010603f42403f424" size="86" pos="91" show="7e:02:4f:e7:9c:07:03:7e:00:68:01:00:47:2e:01:01:c2:11:00:09:01:00:06:31:31:01:01:ff:01:06:03:f4:24:03:f4:24:29:05:01:0a:2d:00:02:22:01:01:79:00:06:01:20:41:01:01:09:7b:00:0f:80:00:0d:04:08:08:08:08:00:0d:04:08:08:04:04:25:09:08:69:6e:74:65:72:6e:65:74:12:01" value="7e024fe79c07037e00680100472e0101c211000901000631310101ff010603f42403f4242905010a2d00022201017900060120410101097b000f80000d0408080808000d0408080404250908696e7465726e65741201">
                            <proto name="nas-5gs" showname="Non-Access-Stratum 5GS (NAS)PDU" size="86" pos="91">
                              <field name="" show="Security protected NAS 5GS message" size="7" pos="91" value="7e024fe79c0703">
                                <field name="nas_5gs.epd" showname="Extended protocol discriminator: 5G mobility management messages (126)" size="1" pos="91" show="126" value="7e"/>
                                <field name="nas_5gs.spare_half_octet" showname="0000 .... = Spare Half Octet: 0" size="1" pos="92" show="0" value="0" unmaskedvalue="02"/>
                                <field name="nas_5gs.security_header_type" showname=".... 0010 = Security header type: Integrity protected and ciphered (2)" size="1" pos="92" show="2" value="2" unmaskedvalue="02"/>
                                <field name="nas_5gs.msg_auth_code" showname="Message authentication code: 0x4fe79c07" size="4" pos="93" show="0x4fe79c07" value="4fe79c07"/>
                                <field name="nas_5gs.seq_no" showname="Sequence number: 3" size="1" pos="97" show="3" value="03"/>
                              </field>
                              <field name="" show="Plain NAS 5GS Message" size="79" pos="98" value="7e00680100472e0101c211000901000631310101ff010603f42403f4242905010a2d00022201017900060120410101097b000f80000d0408080808000d0408080404250908696e7465726e65741201">
                                <field name="nas_5gs.epd" showname="Extended protocol discriminator: 5G mobility management messages (126)" size="1" pos="98" show="126" value="7e"/>
                                <field name="nas_5gs.spare_half_octet" showname="0000 .... = Spare Half Octet: 0" size="1" pos="99" show="0" value="0" unmaskedvalue="00"/>
                                <field name="nas_5gs.security_header_type" showname=".... 0000 = Security header type: Plain NAS message, not security protected (0)" size="1" pos="99" show="0" value="0" unmaskedvalue="00"/>
                                <field name="nas_5gs.mm.message_type" showname="Message type: DL NAS transport (0x68)" size="1" pos="100" show="0x68" value="68"/>
                                <field name="nas_5gs.spare_half_octet" showname="0000 .... = Spare Half Octet: 0" size="1" pos="101" show="0" value="0" unmaskedvalue="01"/>
                                <field name="" show="Payload container type" size="1" pos="101" value="01">
                                  <field name="nas_5gs.mm.pld_cont_type" showname=".... 0001 = Payload container type: N1 SM information (1)" size="1" pos="101" show="1" value="1" unmaskedvalue="01"/>
                                </field>
                                <field name="" show="Payload container" size="73" pos="102" value="00472e0101c211000901000631310101ff010603f42403f4242905010a2d00022201017900060120410101097b000f80000d0408080808000d0408080404250908696e7465726e6574">
                                  <field name="gsm_a.len" showname="Length: 71" size="2" pos="102" show="71" value="0047"/>
                                  <field name="" show="Plain NAS 5GS Message" size="71" pos="104" value="2e0101c211000901000631310101ff010603f42403f4242905010a2d00022201017900060120410101097b000f80000d0408080808000d0408080404250908696e7465726e6574">
                                    <field name="nas_5gs.epd" showname="Extended protocol discriminator: 5G session management messages (46)" size="1" pos="104" show="46" value="2e"/>
                                    <field name="nas_5gs.pdu_session_id" showname="PDU session identity: PDU session identity value 1 (1)" size="1" pos="105" show="1" value="01"/>
                                    <field name="nas_5gs.proc_trans_id" showname="Procedure transaction identity: 1" size="1" pos="106" show="1" value="01"/>
                                    <field name="nas_5gs.sm.message_type" showname="Message type: PDU session establishment accept (0xc2)" size="1" pos="107" show="0xc2" value="c2"/>
                                    <field name="nas_5gs.sm.sel_sc_mode" showname=".001 .... = Selected SSC mode: SSC mode 1 (1)" size="1" pos="108" show="1" value="1" unmaskedvalue="11"/>
                                    <field name="" show="PDU session type - Selected PDU session type" size="1" pos="108" value="11">
                                      <field name="nas_5gs.sm.pdu_session_type" showname=".... .001 = PDU session type: IPv4 (1)" size="1" pos="108" show="1" value="1" unmaskedvalue="11"/>
                                    </field>
                                    <field name="" show="QoS rules - Authorized QoS rules" size="11" pos="109" value="000901000631310101ff01">
                                      <field name="gsm_a.len" showname="Length: 9" size="2" pos="109" show="9" value="0009"/>
                                      <field name="" show="QoS rule 1" size="9" pos="111" value="01000631310101ff01">
                                        <field name="nas_5gs.sm.qos_rule_id" showname="QoS rule identifier: 1" size="1" pos="111" show="1" value="01"/>
                                        <field name="nas_5gs.sm.length" showname="Length: 6" size="2" pos="112" show="6" value="0006"/>
                                        <field name="nas_5gs.sm.rop" showname="001. .... = Rule operation code: Create new QoS rule (1)" size="1" pos="114" show="1" value="1" unmaskedvalue="31"/>
                                        <field name="nas_5gs.sm.dqr" showname="...1 .... = DQR: The QoS rule is the default QoS rule" size="1" pos="114" show="1" value="1" unmaskedvalue="31"/>
                                        <field name="nas_5gs.sm.nof_pkt_filters" showname=".... 0001 = Number of packet filters: 1" size="1" pos="114" show="1" value="1" unmaskedvalue="31"/>
                                        <field name="" show="Packet filter 1" size="3" pos="115" value="310101">
                                          <field name="nas_5gs.sm.pkt_flt_dir" showname="..11 .... = Packet filter direction: Bidirectional (3)" size="1" pos="115" show="3" value="3" unmaskedvalue="31"/>
                                          <field name="nas_5gs.sm.pkt_flt_id" showname=".... 0001 = Packet filter identifier: 1" size="1" pos="115" show="1" value="1" unmaskedvalue="31"/>
                                          <field name="nas_5gs.sm.pf_len" showname="Length: 1" size="1" pos="116" show="1" value="01"/>
                                          <field name="" show="Packet filter component 1" size="1" pos="117" value="01">
                                            <field name="nas_5gs.sm.pf_type" showname="Packet filter component type: Match-all type (1)" size="1" pos="117" show="1" value="01"/>
                                          </field>
                                        </field>
                                        <field name="nas_5gs.sm.qos_rule_precedence" showname="QoS rule precedence: 255" size="1" pos="118" show="255" value="ff"/>
                                        <field name="nas_5gs.spare_b7" showname="0... .... = Spare: 0" size="1" pos="119" show="0" value="0" unmaskedvalue="01"/>
                                        <field name="nas_5gs.spare_b6" showname=".0.. .... = Spare: 0" size="1" pos="119" show="0" value="0" unmaskedvalue="01"/>
                                        <field name="nas_5gs.sm.qfi" showname="..00 0001 = Qos flow identifier: 1" size="1" pos="119" show="1" value="1" unmaskedvalue="01"/>
                                      </field>
                                    </field>
                                    <field name="" show="Session-AMBR" size="7" pos="120" value="0603f42403f424">
                                      <field name="gsm_a.len" showname="Length: 6" size="1" pos="120" show="6" value="06"/>
                                      <field name="nas_5gs.sm.unit_for_session_ambr_dl" showname="Unit for Session-AMBR for downlink: value is incremented in multiples of 16 Kbps (3)" size="1" pos="121" show="3" value="03"/>
                                      <field name="nas_5gs.sm.session_ambr_dl" showname="Session-AMBR for downlink: 1000000 Kbps (62500)" size="2" pos="122" show="62500" value="f424"/>
                                      <field name="nas_5gs.sm.unit_for_session_ambr_ul" showname="Unit for Session-AMBR for uplink: value is incremented in multiples of 16 Kbps (3)" size="1" pos="124" show="3" value="03"/>
                                      <field name="nas_5gs.sm.session_ambr_ul" showname="Session-AMBR for uplink: 1000000 Kbps (62500)" size="2" pos="125" show="62500" value="f424"/>
                                    </field>
                                    <field name="" show="PDU address" size="7" pos="127" value="2905010a2d0002">
                                      <field name="nas_5gs.sm.elem_id" showname="Element ID: 0x29" size="1" pos="127" show="0x29" value="29"/>
                                      <field name="gsm_a.len" showname="Length: 5" size="1" pos="128" show="5" value="05"/>
                                      <field name="nas_5gs.sm.si6lla" showname=".... 0... = SMF&#x27;s IPv6 link local address (SI6LLA): Absent" size="1" pos="129" show="0" value="0" unmaskedvalue="01"/>
                                      <field name="nas_5gs.sm.pdu_ses_type" showname=".... .001 = PDU session type: IPv4 (1)" size="1" pos="129" show="1" value="1" unmaskedvalue="01"/>
                                      <field name="nas_5gs.sm.pdu_addr_inf_ipv4" showname="PDU address information: 10.45.0.2" size="4" pos="130" show="10.45.0.2" value="0a2d0002"/>
                                    </field>
                                    <field name="" show="S-NSSAI" size="3" pos="134" value="220101">
                                      <field name="nas_5gs.common.elem_id" showname="Element ID: 0x22" size="1" pos="134" show="0x22" value="22"/>
                                      <field name="gsm_a.len" showname="Length: 1" size="1" pos="135" show="1" value="01"/>
                                      <field name="nas_5gs.mm.sst" showname="Slice/service type (SST): eMBB (1)" size="1" pos="136" show="1" value="01"/>
                                    </field>
                                    <field name="" show="QoS flow descriptions - Authorized" size="9" pos="137" value="790006012041010109">
                                      <field name="nas_5gs.sm.elem_id" showname="Element ID: 0x79" size="1" pos="137" show="0x79" value="79"/>
                                      <field name="gsm_a.len" showname="Length: 6" size="2" pos="138" show="6" value="0006"/>
                                      <field name="" show="QoS flow description 1 - 5QI" size="6" pos="140" value="012041010109">
                                        <field name="nas_5gs.sm.qfi" showname="..00 0001 = Qos flow identifier: 1" size="1" pos="140" show="1" value="1" unmaskedvalue="01"/>
                                        <field name="nas_5gs.sm.hf_nas_5gs_sm_qos_des_flow_opt_code" showname="001. .... = Operation code: Create new QoS flow description (1)" size="1" pos="141" show="1" value="1" unmaskedvalue="20"/>
                                        <field name="nas_5gs.sm.e" showname=".1.. .... = E bit: 1" size="1" pos="142" show="1" value="1" unmaskedvalue="41"/>
                                        <field name="nas_5gs.sm.nof_params" showname="..00 0001 = Number of parameters: 1" size="1" pos="142" show="1" value="1" unmaskedvalue="41"/>
                                        <field name="" show="Parameter 1" size="3" pos="143" value="010109">
                                          <field name="nas_5gs.sm.param_id" showname="Parameter identifier: 5QI (1)" size="1" pos="143" show="1" value="01"/>
                                          <field name="nas_5gs.sm.param_len" showname="Length: 1" size="1" pos="144" show="1" value="01"/>
                                          <field name="nas_5gs.sm.5qi" showname="5QI: 9" size="1" pos="145" show="9" value="09"/>
                                        </field>
                                      </field>
                                    </field>
                                    <field name="" show="Extended protocol configuration options" size="18" pos="146" value="7b000f80000d0408080808000d0408080404">
                                      <field name="nas_eps.esm.elem_id" showname="Element ID: 0x7b" size="1" pos="146" show="0x7b" value="7b"/>
                                      <field name="gsm_a.len" showname="Length: 15" size="2" pos="147" show="15" value="000f"/>
                                      <field name="gsm_a.gm.sm.link_dir" showname="Link direction: Network to MS (1)" size="0" pos="149" show="1"/>
                                      <field name="gsm_a.gm.sm.ext" showname="1... .... = Extension: True" size="1" pos="149" show="1" value="1" unmaskedvalue="80"/>
                                      <field name="gsm_a.gm.configuration_protocol" showname=".... .000 = Configuration Protocol: PPP for use with IP PDP type or IP PDN type (0)" size="1" pos="149" show="0" value="0" unmaskedvalue="80"/>
                                      <field name="gsm_a.gm.sm.pco_pid" showname="Protocol or Container ID: DNS Server IPv4 Address (0x000d)" size="2" pos="150" show="0x000d" value="000d">
                                        <field name="gsm_a.gm.sm.pco.length" showname="Length: 0x04 (4)" size="1" pos="152" show="0x04" value="04"/>
                                        <field name="gsm_a.gm.sm.pco.dns.ipv4" showname="IPv4: 8.8.8.8" size="4" pos="153" show="8.8.8.8" value="08080808"/>
                                      </field>
                                      <field name="gsm_a.gm.sm.pco_pid" showname="Protocol or Container ID: DNS Server IPv4 Address (0x000d)" size="2" pos="157" show="0x000d" value="000d">
                                        <field name="gsm_a.gm.sm.pco.length" showname="Length: 0x04 (4)" size="1" pos="159" show="0x04" value="04"/>
                                        <field name="gsm_a.gm.sm.pco.dns.ipv4" showname="IPv4: 8.8.4.4" size="4" pos="160" show="8.8.4.4" value="08080404"/>
                                      </field>
                                    </field>
                                    <field name="" show="DNN" size="11" pos="164" value="250908696e7465726e6574">
                                      <field name="nas_5gs.common.elem_id" showname="Element ID: 0x25" size="1" pos="164" show="0x25" value="25"/>
                                      <field name="gsm_a.len" showname="Length: 9" size="1" pos="165" show="9" value="09"/>
                                      <field name="nas_5gs.cmn.dnn" showname="DNN: internet" size="9" pos="166" show="internet" value="08696e7465726e6574"/>
                                    </field>
                                  </field>
                                </field>
                                <field name="" show="PDU session identity 2 - PDU session ID" size="2" pos="175" value="1201">
                                  <field name="nas_5gs.mm.elem_id" showname="Element ID: 0x12" size="1" pos="175" show="0x12" value="12"/>
                                  <field name="nas_5gs.pdu_session_id" showname="PDU session identity: PDU session identity value 1 (1)" size="1" pos="176" show="1" value="01"/>
                                </field>
                              </field>
                            </proto>
                          </field>
                          <field name="ngap.s_NSSAI_element" showname="s-NSSAI" size="1" pos="177" show="" value="">
                            <field name="per.extension_bit" showname="0... .... Extension Bit: False" hide="yes" size="1" pos="177" show="0" value="0" unmaskedvalue="00"/>
                            <field name="per.optional_field_bit" showname=".0.. .... Optional Field Bit: False (sD is NOT present)" hide="yes" size="1" pos="177" show="0" value="0" unmaskedvalue="00"/>
                            <field name="per.optional_field_bit" showname="..0. .... Optional Field Bit: False (iE-Extensions is NOT present)" hide="yes" size="1" pos="177" show="0" value="0" unmaskedvalue="00"/>
                            <field name="ngap.sST" showname="sST: 01" size="1" pos="177" show="01" value="01"/>
                          </field>
                          <field name="per.octet_string_length" showname="Octet String Length: 47" hide="yes" size="1" pos="179" show="47" value="2f"/>
                          <field name="ngap.pDUSessionResourceSetupRequestTransfer" showname="pDUSessionResourceSetupRequestTransfer: 0000040082000a0c3b9aca00303b9aca00008b000a01f0c0a8386400006d1b0086000100" size="47" pos="180" show="00:00:04:00:82:00:0a:0c:3b:9a:ca:00:30:3b:9a:ca:00:00:8b:00:0a:01:f0:c0:a8:38:64:00:00:6d:1b:00:86:00:01:00:00:88:00:07:00:01:00:00:09:1c:40" value="0000040082000a0c3b9aca00303b9aca00008b000a01f0c0a8386400006d1b00860001000088000700010000091c40">
                            <field name="ngap.PDUSessionResourceSetupRequestTransfer_element" showname="PDUSessionResourceSetupRequestTransfer" size="47" pos="180" show="" value="">
                              <field name="per.extension_bit" showname="0... .... Extension Bit: False" hide="yes" size="1" pos="180" show="0" value="0" unmaskedvalue="00"/>
                              <field name="per.sequence_of_length" showname="Sequence-Of Length: 4" hide="yes" size="2" pos="181" show="4" value="0004"/>
                              <field name="ngap.protocolIEs" showname="protocolIEs: 4 items" size="44" pos="183" show="4" value="0082000a0c3b9aca00303b9aca00008b000a01f0c0a8386400006d1b00860001000088000700010000091c40">
                                <field name="" show="Item 0: id-PDUSessionAggregateMaximumBitRate" size="14" pos="183" value="0082000a0c3b9aca00303b9aca00">
                                  <field name="ngap.ProtocolIE_Field_element" showname="ProtocolIE-Field" size="14" pos="183" show="" value="">
                                    <field name="ngap.id" showname="id: id-PDUSessionAggregateMaximumBitRate (130)" size="2" pos="183" show="130" value="0082"/>
                                    <field name="per.enum_index" showname="Enumerated Index: 0" hide="yes" size="1" pos="185" show="0" value="00"/>
                                    <field name="ngap.criticality" showname="criticality: reject (0)" size="1" pos="185" show="0" value="00"/>
                                    <field name="per.open_type_length" showname="Open Type Length: 10" hide="yes" size="1" pos="186" show="10" value="0a"/>
                                    <field name="ngap.value_element" showname="value" size="10" pos="187" show="" value="">
                                      <field name="ngap.PDUSessionAggregateMaximumBitRate_element" showname="PDUSessionAggregateMaximumBitRate" size="10" pos="187" show="" value="">
                                        <field name="per.extension_bit" showname="0... .... Extension Bit: False" hide="yes" size="1" pos="187" show="0" value="0" unmaskedvalue="0c"/>
                                        <field name="per.optional_field_bit" showname=".0.. .... Optional Field Bit: False (iE-Extensions is NOT present)" hide="yes" size="1" pos="187" show="0" value="0" unmaskedvalue="0c"/>
                                        <field name="per.extension_present_bit" showname="..0. .... Extension Present Bit: False" hide="yes" size="1" pos="187" show="0" value="0" unmaskedvalue="0c"/>
                                        <field name="ngap.pDUSessionAggregateMaximumBitRateDL" showname="pDUSessionAggregateMaximumBitRateDL: 1000000000bits/s" size="5" pos="187" show="1000000000" value="0c3b9aca00"/>
                                        <field name="per.extension_present_bit" showname="0... .... Extension Present Bit: False" hide="yes" size="1" pos="192" show="0" value="0" unmaskedvalue="30"/>
                                        <field name="ngap.pDUSessionAggregateMaximumBitRateUL" showname="pDUSessionAggregateMaximumBitRateUL: 1000000000bits/s" size="5" pos="192" show="1000000000" value="303b9aca00"/>
                                      </field>
                                    </field>
                                  </field>
                                </field>
                                <field name="" show="Item 1: id-UL-NGU-UP-TNLInformation" size="14" pos="197" value="008b000a01f0c0a8386400006d1b">
                                  <field name="ngap.ProtocolIE_Field_element" showname="ProtocolIE-Field" size="14" pos="197" show="" value="">
                                    <field name="ngap.id" showname="id: id-UL-NGU-UP-TNLInformation (139)" size="2" pos="197" show="139" value="008b"/>
                                    <field name="per.enum_index" showname="Enumerated Index: 0" hide="yes" size="1" pos="199" show="0" value="00"/>
                                    <field name="ngap.criticality" showname="criticality: reject (0)" size="1" pos="199" show="0" value="00"/>
                                    <field name="per.open_type_length" showname="Open Type Length: 10" hide="yes" size="1" pos="200" show="10" value="0a"/>
                                    <field name="ngap.value_element" showname="value" size="10" pos="201" show="" value="">
                                      <field name="per.choice_index" showname="Choice Index: 0" hide="yes" size="1" pos="201" show="0" value="01"/>
                                      <field name="ngap.UPTransportLayerInformation" showname="UPTransportLayerInformation: gTPTunnel (0)" size="10" pos="201" show="0" value="01f0c0a8386400006d1b">
                                        <field name="ngap.gTPTunnel_element" showname="gTPTunnel" size="10" pos="201" show="" value="">
                                          <field name="per.extension_bit" showname=".0.. .... Extension Bit: False" hide="yes" size="1" pos="201" show="0" value="0" unmaskedvalue="01"/>
                                          <field name="per.optional_field_bit" showname="..0. .... Optional Field Bit: False (iE-Extensions is NOT present)" hide="yes" size="1" pos="201" show="0" value="0" unmaskedvalue="01"/>
                                          <field name="per.extension_present_bit" showname="...0 .... Extension Present Bit: False" hide="yes" size="1" pos="201" show="0" value="0" unmaskedvalue="01"/>
                                          <field name="per.bit_string_length" showname="Bit String Length: 32" hide="yes" size="1" pos="201" show="32" value="01"/>
                                          <field name="ngap.transportLayerAddress" showname="transportLayerAddress: c0a83864 [bit length 32, 1100 0000  1010 1000  0011 1000  0110 0100 decimal value 3232249956]" size="4" pos="203" show="c0:a8:38:64" value="c0a83864">
                                            <field name="ngap.TransportLayerAddressIPv4" showname="TransportLayerAddress (IPv4): 192.168.56.100" size="4" pos="203" show="192.168.56.100" value="c0a83864"/>
                                          </field>
                                          <field name="ngap.gTP_TEID" showname="gTP-TEID: 00006d1b" size="4" pos="207" show="00:00:6d:1b" value="00006d1b"/>
                                        </field>
                                      </field>
                                    </field>
                                  </field>
                                </field>
                                <field name="" show="Item 2: id-PDUSessionType" size="5" pos="211" value="0086000100">
                                  <field name="ngap.ProtocolIE_Field_element" showname="ProtocolIE-Field" size="5" pos="211" show="" value="">
                                    <field name="ngap.id" showname="id: id-PDUSessionType (134)" size="2" pos="211" show="134" value="0086"/>
                                    <field name="per.enum_index" showname="Enumerated Index: 0" hide="yes" size="1" pos="213" show="0" value="00"/>
                                    <field name="ngap.criticality" showname="criticality: reject (0)" size="1" pos="213" show="0" value="00"/>
                                    <field name="per.open_type_length" showname="Open Type Length: 1" hide="yes" size="1" pos="214" show="1" value="01"/>
                                    <field name="ngap.value_element" showname="value" size="1" pos="215" show="" value="">
                                      <field name="per.extension_present_bit" showname="0... .... Extension Present Bit: False" hide="yes" size="1" pos="215" show="0" value="0" unmaskedvalue="00"/>
                                      <field name="per.enum_index" showname="Enumerated Index: 0" hide="yes" size="1" pos="215" show="0" value="00"/>
                                      <field name="ngap.PDUSessionType" showname="PDUSessionType: ipv4 (0)" size="1" pos="215" show="0" value="00"/>
                                    </field>
                                  </field>
                                </field>
                                <field name="" show="Item 3: id-QosFlowSetupRequestList" size="11" pos="216" value="0088000700010000091c40">
                                  <field name="ngap.ProtocolIE_Field_element" showname="ProtocolIE-Field" size="11" pos="216" show="" value="">
                                    <field name="ngap.id" showname="id: id-QosFlowSetupRequestList (136)" size="2" pos="216" show="136" value="0088"/>
                                    <field name="per.enum_index" showname="Enumerated Index: 0" hide="yes" size="1" pos="218" show="0" value="00"/>
                                    <field name="ngap.criticality" showname="criticality: reject (0)" size="1" pos="218" show="0" value="00"/>
                                    <field name="per.open_type_length" showname="Open Type Length: 7" hide="yes" size="1" pos="219" show="7" value="07"/>
                                    <field name="ngap.value_element" showname="value" size="7" pos="220" show="" value="">
                                      <field name="per.sequence_of_length" showname="Sequence-Of Length: 1" hide="yes" size="1" pos="220" show="1" value="00"/>
                                      <field name="ngap.QosFlowSetupRequestList" showname="QosFlowSetupRequestList: 1 item" size="6" pos="220" show="1" value="00010000091c">
                                        <field name="" show="Item 0" size="6" pos="220" value="00010000091c">
                                          <field name="ngap.QosFlowSetupRequestItem_element" showname="QosFlowSetupRequestItem" size="6" pos="220" show="" value="">
                                            <field name="per.extension_bit" showname=".... ..0. Extension Bit: False" hide="yes" size="1" pos="220" show="0" value="0" unmaskedvalue="00"/>
                                            <field name="per.optional_field_bit" showname=".... ...0 Optional Field Bit: False (e-RAB-ID is NOT present)" hide="yes" size="1" pos="220" show="0" value="0" unmaskedvalue="00"/>
                                            <field name="per.optional_field_bit" showname="0... .... Optional Field Bit: False (iE-Extensions is NOT present)" hide="yes" size="1" pos="221" show="0" value="0" unmaskedvalue="01"/>
                                            <field name="per.extension_present_bit" showname=".0.. .... Extension Present Bit: False" hide="yes" size="1" pos="221" show="0" value="0" unmaskedvalue="01"/>
                                            <field name="ngap.qosFlowIdentifier" showname="qosFlowIdentifier: 1" size="1" pos="221" show="1" value="01"/>
                                            <field name="ngap.qosFlowLevelQosParameters_element" showname="qosFlowLevelQosParameters" size="4" pos="222" show="" value="">
                                              <field name="per.extension_bit" showname="0... .... Extension Bit: False" hide="yes" size="1" pos="222" show="0" value="0" unmaskedvalue="00"/>
                                              <field name="per.optional_field_bit" showname=".0.. .... Optional Field Bit: False (gBR-QosInformation is NOT present)" hide="yes" size="1" pos="222" show="0" value="0" unmaskedvalue="00"/>
                                              <field name="per.optional_field_bit" showname="..0. .... Optional Field Bit: False (reflectiveQosAttribute is NOT present)" hide="yes" size="1" pos="222" show="0" value="0" unmaskedvalue="00"/>
                                              <field name="per.optional_field_bit" showname="...0 .... Optional Field Bit: False (additionalQosFlowInformation is NOT present)" hide="yes" size="1" pos="222" show="0" value="0" unmaskedvalue="00"/>
                                              <field name="per.optional_field_bit" showname=".... 0... Optional Field Bit: False (iE-Extensions is NOT present)" hide="yes" size="1" pos="222" show="0" value="0" unmaskedvalue="00"/>
                                              <field name="per.choice_index" showname="Choice Index: 0" hide="yes" size="1" pos="222" show="0" value="00"/>
                                              <field name="ngap.qosCharacteristics" showname="qosCharacteristics: nonDynamic5QI (0)" size="3" pos="222" show="0" value="000009">
                                                <field name="ngap.nonDynamic5QI_element" showname="nonDynamic5QI" size="3" pos="222" show="" value="">
                                                  <field name="per.extension_bit" showname=".... ...0 Extension Bit: False" hide="yes" size="1" pos="222" show="0" value="0" unmaskedvalue="00"/>
                                                  <field name="per.optional_field_bit" showname="0... .... Optional Field Bit: False (priorityLevelQos is NOT present)" hide="yes" size="1" pos="223" show="0" value="0" unmaskedvalue="00"/>
                                                  <field name="per.optional_field_bit" showname=".0.. .... Optional Field Bit: False (averagingWindow is NOT present)" hide="yes" size="1" pos="223" show="0" value="0" unmaskedvalue="00"/>
                                                  <field name="per.optional_field_bit" showname="..0. .... Optional Field Bit: False (maximumDataBurstVolume is NOT present)" hide="yes" size="1" pos="223" show="0" value="0" unmaskedvalue="00"/>
                                                  <field name="per.optional_field_bit" showname="...0 .... Optional Field Bit: False (iE-Extensions is NOT present)" hide="yes" size="1" pos="223" show="0" value="0" unmaskedvalue="00"/>
                                                  <field name="per.extension_present_bit" showname=".... 0... Extension Present Bit: False" hide="yes" size="1" pos="223" show="0" value="0" unmaskedvalue="00"/>
                                                  <field name="ngap.fiveQI" showname="fiveQI: 9" size="1" pos="224" show="9" value="09"/>
                                                </field>
                                              </field>
                                              <field name="ngap.allocationAndRetentionPriority_element" showname="allocationAndRetentionPriority" size="1" pos="225" show="" value="">
                                                <field name="per.extension_bit" showname="0... .... Extension Bit: False" hide="yes" size="1" pos="225" show="0" value="0" unmaskedvalue="1c"/>
                                                <field name="per.optional_field_bit" showname=".0.. .... Optional Field Bit: False (iE-Extensions is NOT present)" hide="yes" size="1" pos="225" show="0" value="0" unmaskedvalue="1c"/>
                                                <field name="ngap.priorityLevelARP" showname="priorityLevelARP: 8" size="1" pos="225" show="8" value="1c"/>
                                                <field name="per.extension_present_bit" showname=".... ..0. Extension Present Bit: False" hide="yes" size="1" pos="225" show="0" value="0" unmaskedvalue="1c"/>
                                                <field name="per.enum_index" showname="Enumerated Index: 0" hide="yes" size="1" pos="225" show="0" value="1c"/>
                                                <field name="ngap.pre_emptionCapability" showname="pre-emptionCapability: shall-not-trigger-pre-emption (0)" size="1" pos="225" show="0" value="1c"/>
                                                <field name="per.extension_present_bit" showname="0... .... Extension Present Bit: False" hide="yes" size="1" pos="226" show="0" value="0" unmaskedvalue="40"/>
                                                <field name="per.enum_index" showname="Enumerated Index: 1" hide="yes" size="1" pos="226" show="1" value="40"/>
                                                <field name="ngap.pre_emptionVulnerability" showname="pre-emptionVulnerability: pre-emptable (1)" size="1" pos="226" show="1" value="40"/>
                                              </field>
                                            </field>
                                          </field>
                                        </field>
                                      </field>
                                    </field>
                                  </field>
                                </field>
                              </field>
                            </field>
                          </field>
                        </field>
                      </field>
                    </field>
                  </field>
                </field>
              </field>
              <field name="" show="Item 3: id-UEAggregateMaximumBitRate" size="14" pos="227" value="006e400a0c3b9aca00303b9aca00">
                <field name="ngap.ProtocolIE_Field_element" showname="ProtocolIE-Field" size="14" pos="227" show="" value="">
                  <field name="ngap.id" showname="id: id-UEAggregateMaximumBitRate (110)" size="2" pos="227" show="110" value="006e"/>
                  <field name="per.enum_index" showname="Enumerated Index: 1" hide="yes" size="1" pos="229" show="1" value="40"/>
                  <field name="ngap.criticality" showname="criticality: ignore (1)" size="1" pos="229" show="1" value="40"/>
                  <field name="per.open_type_length" showname="Open Type Length: 10" hide="yes" size="1" pos="230" show="10" value="0a"/>
                  <field name="ngap.value_element" showname="value" size="10" pos="231" show="" value="">
                    <field name="ngap.UEAggregateMaximumBitRate_element" showname="UEAggregateMaximumBitRate" size="10" pos="231" show="" value="">
                      <field name="per.extension_bit" showname="0... .... Extension Bit: False" hide="yes" size="1" pos="231" show="0" value="0" unmaskedvalue="0c"/>
                      <field name="per.optional_field_bit" showname=".0.. .... Optional Field Bit: False (iE-Extensions is NOT present)" hide="yes" size="1" pos="231" show="0" value="0" unmaskedvalue="0c"/>
                      <field name="per.extension_present_bit" showname="..0. .... Extension Present Bit: False" hide="yes" size="1" pos="231" show="0" value="0" unmaskedvalue="0c"/>
                      <field name="ngap.uEAggregateMaximumBitRateDL" showname="uEAggregateMaximumBitRateDL: 1000000000bits/s" size="5" pos="231" show="1000000000" value="0c3b9aca00"/>
                      <field name="per.extension_present_bit" showname="0... .... Extension Present Bit: False" hide="yes" size="1" pos="236" show="0" value="0" unmaskedvalue="30"/>
                      <field name="ngap.uEAggregateMaximumBitRateUL" showname="uEAggregateMaximumBitRateUL: 1000000000bits/s" size="5" pos="236" show="1000000000" value="303b9aca00"/>
                    </field>
                  </field>
                </field>
              </field>
            </field>
          </field>
        </field>
      </field>
    </field>
  </proto>
</packet>


<packet>
  <proto name="geninfo" pos="0" showname="General information" size="102">
    <field name="num" pos="0" show="29" showname="Number" value="1d" size="102"/>
    <field name="len" pos="0" show="102" showname="Frame Length" value="66" size="102"/>
    <field name="caplen" pos="0" show="102" showname="Captured Length" value="66" size="102"/>
    <field name="timestamp" pos="0" show="Apr  4, 2024 12:26:48.258235000 IST" showname="Captured Time" value="1712213808.258235000" size="102"/>
  </proto>
  <proto name="frame" showname="Frame 29: 102 bytes on wire (816 bits), 102 bytes captured (816 bits) on interface bridge104, id 0" size="102" pos="0">
    <field name="filtered" value="frame" />
  </proto>
  <proto name="eth" showname="Ethernet II, Src: 00:1c:42:45:12:08, Dst: 00:1c:42:16:da:82" size="14" pos="0">
    <field name="filtered" value="eth" />
  </proto>
  <proto name="ip" showname="Internet Protocol Version 4, Src: 192.168.56.120, Dst: 192.168.56.100" size="20" pos="14">
    <field name="filtered" value="ip" />
  </proto>
  <proto name="sctp" showname="Stream Control Transmission Protocol, Src Port: 59338 (59338), Dst Port: 38412 (38412)" size="28" pos="34">
    <field name="filtered" value="sctp" />
  </proto>
  <proto name="ngap" showname="NG Application Protocol (PDUSessionResourceSetupResponse)" size="40" pos="62">
    <field name="per.extension_bit" showname="0... .... Extension Bit: False" hide="yes" size="1" pos="62" show="0" value="0" unmaskedvalue="20"/>
    <field name="per.choice_index" showname="Choice Index: 1" hide="yes" size="1" pos="62" show="1" value="20"/>
    <field name="ngap.NGAP_PDU" showname="NGAP-PDU: successfulOutcome (1)" size="40" pos="62" show="1" value="201d0024000003000a40020004005540020001004b40110000010d0003e0c0a83878000000010001">
      <field name="ngap.successfulOutcome_element" showname="successfulOutcome" size="40" pos="62" show="" value="">
        <field name="ngap.procedureCode" showname="procedureCode: id-PDUSessionResourceSetup (29)" size="1" pos="63" show="29" value="1d"/>
        <field name="per.enum_index" showname="Enumerated Index: 0" hide="yes" size="1" pos="64" show="0" value="00"/>
        <field name="ngap.criticality" showname="criticality: reject (0)" size="1" pos="64" show="0" value="00"/>
        <field name="per.open_type_length" showname="Open Type Length: 36" hide="yes" size="1" pos="65" show="36" value="24"/>
        <field name="ngap.value_element" showname="value" size="36" pos="66" show="" value="">
          <field name="ngap.PDUSessionResourceSetupResponse_element" showname="PDUSessionResourceSetupResponse" size="36" pos="66" show="" value="">
            <field name="per.extension_bit" showname="0... .... Extension Bit: False" hide="yes" size="1" pos="66" show="0" value="0" unmaskedvalue="00"/>
            <field name="per.sequence_of_length" showname="Sequence-Of Length: 3" hide="yes" size="2" pos="67" show="3" value="0003"/>
            <field name="ngap.protocolIEs" showname="protocolIEs: 3 items" size="33" pos="69" show="3" value="000a40020004005540020001004b40110000010d0003e0c0a83878000000010001">
              <field name="" show="Item 0: id-AMF-UE-NGAP-ID" size="6" pos="69" value="000a40020004">
                <field name="ngap.ProtocolIE_Field_element" showname="ProtocolIE-Field" size="6" pos="69" show="" value="">
                  <field name="ngap.id" showname="id: id-AMF-UE-NGAP-ID (10)" size="2" pos="69" show="10" value="000a"/>
                  <field name="per.enum_index" showname="Enumerated Index: 1" hide="yes" size="1" pos="71" show="1" value="40"/>
                  <field name="ngap.criticality" showname="criticality: ignore (1)" size="1" pos="71" show="1" value="40"/>
                  <field name="per.open_type_length" showname="Open Type Length: 2" hide="yes" size="1" pos="72" show="2" value="02"/>
                  <field name="ngap.value_element" showname="value" size="2" pos="73" show="" value="">
                    <field name="ngap.AMF_UE_NGAP_ID" showname="AMF-UE-NGAP-ID: 4" size="2" pos="73" show="4" value="0004"/>
                  </field>
                </field>
              </field>
              <field name="" show="Item 1: id-RAN-UE-NGAP-ID" size="6" pos="75" value="005540020001">
                <field name="ngap.ProtocolIE_Field_element" showname="ProtocolIE-Field" size="6" pos="75" show="" value="">
                  <field name="ngap.id" showname="id: id-RAN-UE-NGAP-ID (85)" size="2" pos="75" show="85" value="0055"/>
                  <field name="per.enum_index" showname="Enumerated Index: 1" hide="yes" size="1" pos="77" show="1" value="40"/>
                  <field name="ngap.criticality" showname="criticality: ignore (1)" size="1" pos="77" show="1" value="40"/>
                  <field name="per.open_type_length" showname="Open Type Length: 2" hide="yes" size="1" pos="78" show="2" value="02"/>
                  <field name="ngap.value_element" showname="value" size="2" pos="79" show="" value="">
                    <field name="ngap.RAN_UE_NGAP_ID" showname="RAN-UE-NGAP-ID: 1" size="2" pos="79" show="1" value="0001"/>
                  </field>
                </field>
              </field>
              <field name="" show="Item 2: id-PDUSessionResourceSetupListSURes" size="21" pos="81" value="004b40110000010d0003e0c0a83878000000010001">
                <field name="ngap.ProtocolIE_Field_element" showname="ProtocolIE-Field" size="21" pos="81" show="" value="">
                  <field name="ngap.id" showname="id: id-PDUSessionResourceSetupListSURes (75)" size="2" pos="81" show="75" value="004b"/>
                  <field name="per.enum_index" showname="Enumerated Index: 1" hide="yes" size="1" pos="83" show="1" value="40"/>
                  <field name="ngap.criticality" showname="criticality: ignore (1)" size="1" pos="83" show="1" value="40"/>
                  <field name="per.open_type_length" showname="Open Type Length: 17" hide="yes" size="1" pos="84" show="17" value="11"/>
                  <field name="ngap.value_element" showname="value" size="17" pos="85" show="" value="">
                    <field name="per.sequence_of_length" showname="Sequence-Of Length: 1" hide="yes" size="1" pos="85" show="1" value="00"/>
                    <field name="ngap.PDUSessionResourceSetupListSURes" showname="PDUSessionResourceSetupListSURes: 1 item" size="16" pos="86" show="1" value="00010d0003e0c0a83878000000010001">
                      <field name="" show="Item 0" size="16" pos="86" value="00010d0003e0c0a83878000000010001">
                        <field name="ngap.PDUSessionResourceSetupItemSURes_element" showname="PDUSessionResourceSetupItemSURes" size="16" pos="86" show="" value="">
                          <field name="per.extension_bit" showname="0... .... Extension Bit: False" hide="yes" size="1" pos="86" show="0" value="0" unmaskedvalue="00"/>
                          <field name="per.optional_field_bit" showname=".0.. .... Optional Field Bit: False (iE-Extensions is NOT present)" hide="yes" size="1" pos="86" show="0" value="0" unmaskedvalue="00"/>
                          <field name="ngap.pDUSessionID" showname="pDUSessionID: 1" size="1" pos="87" show="1" value="01"/>
                          <field name="per.octet_string_length" showname="Octet String Length: 13" hide="yes" size="1" pos="88" show="13" value="0d"/>
                          <field name="ngap.pDUSessionResourceSetupResponseTransfer" showname="pDUSessionResourceSetupResponseTransfer: 0003e0c0a83878000000010001" size="13" pos="89" show="00:03:e0:c0:a8:38:78:00:00:00:01:00:01" value="0003e0c0a83878000000010001">
                            <field name="ngap.PDUSessionResourceSetupResponseTransfer_element" showname="PDUSessionResourceSetupResponseTransfer" size="13" pos="89" show="" value="">
                              <field name="per.extension_bit" showname="0... .... Extension Bit: False" hide="yes" size="1" pos="89" show="0" value="0" unmaskedvalue="00"/>
                              <field name="per.optional_field_bit" showname=".0.. .... Optional Field Bit: False (additionalDLQosFlowPerTNLInformation is NOT present)" hide="yes" size="1" pos="89" show="0" value="0" unmaskedvalue="00"/>
                              <field name="per.optional_field_bit" showname="..0. .... Optional Field Bit: False (securityResult is NOT present)" hide="yes" size="1" pos="89" show="0" value="0" unmaskedvalue="00"/>
                              <field name="per.optional_field_bit" showname="...0 .... Optional Field Bit: False (qosFlowFailedToSetupList is NOT present)" hide="yes" size="1" pos="89" show="0" value="0" unmaskedvalue="00"/>
                              <field name="per.optional_field_bit" showname=".... 0... Optional Field Bit: False (iE-Extensions is NOT present)" hide="yes" size="1" pos="89" show="0" value="0" unmaskedvalue="00"/>
                              <field name="ngap.dLQosFlowPerTNLInformation_element" showname="dLQosFlowPerTNLInformation" size="13" pos="89" show="" value="">
                                <field name="per.extension_bit" showname=".... .0.. Extension Bit: False" hide="yes" size="1" pos="89" show="0" value="0" unmaskedvalue="00"/>
                                <field name="per.optional_field_bit" showname=".... ..0. Optional Field Bit: False (iE-Extensions is NOT present)" hide="yes" size="1" pos="89" show="0" value="0" unmaskedvalue="00"/>
                                <field name="per.choice_index" showname="Choice Index: 0" hide="yes" size="1" pos="89" show="0" value="00"/>
                                <field name="ngap.uPTransportLayerInformation" showname="uPTransportLayerInformation: gTPTunnel (0)" size="11" pos="89" show="0" value="0003e0c0a8387800000001">
                                  <field name="ngap.gTPTunnel_element" showname="gTPTunnel" size="10" pos="90" show="" value="">
                                    <field name="per.extension_bit" showname="0... .... Extension Bit: False" hide="yes" size="1" pos="90" show="0" value="0" unmaskedvalue="03"/>
                                    <field name="per.optional_field_bit" showname=".0.. .... Optional Field Bit: False (iE-Extensions is NOT present)" hide="yes" size="1" pos="90" show="0" value="0" unmaskedvalue="03"/>
                                    <field name="per.extension_present_bit" showname="..0. .... Extension Present Bit: False" hide="yes" size="1" pos="90" show="0" value="0" unmaskedvalue="03"/>
                                    <field name="per.bit_string_length" showname="Bit String Length: 32" hide="yes" size="1" pos="90" show="32" value="03"/>
                                    <field name="ngap.transportLayerAddress" showname="transportLayerAddress: c0a83878 [bit length 32, 1100 0000  1010 1000  0011 1000  0111 1000 decimal value 3232249976]" size="4" pos="92" show="c0:a8:38:78" value="c0a83878">
                                      <field name="ngap.TransportLayerAddressIPv4" showname="TransportLayerAddress (IPv4): 192.168.56.120" size="4" pos="92" show="192.168.56.120" value="c0a83878"/>
                                    </field>
                                    <field name="ngap.gTP_TEID" showname="gTP-TEID: 00000001" size="4" pos="96" show="00:00:00:01" value="00000001"/>
                                  </field>
                                </field>
                                <field name="per.sequence_of_length" showname="Sequence-Of Length: 1" hide="yes" size="1" pos="100" show="1" value="00"/>
                                <field name="ngap.associatedQosFlowList" showname="associatedQosFlowList: 1 item" size="2" pos="100" show="1" value="0001">
                                  <field name="" show="Item 0" size="2" pos="100" value="0001">
                                    <field name="ngap.AssociatedQosFlowItem_element" showname="AssociatedQosFlowItem" size="2" pos="100" show="" value="">
                                      <field name="per.extension_bit" showname=".... ..0. Extension Bit: False" hide="yes" size="1" pos="100" show="0" value="0" unmaskedvalue="00"/>
                                      <field name="per.optional_field_bit" showname=".... ...0 Optional Field Bit: False (qosFlowMappingIndication is NOT present)" hide="yes" size="1" pos="100" show="0" value="0" unmaskedvalue="00"/>
                                      <field name="per.optional_field_bit" showname="0... .... Optional Field Bit: False (iE-Extensions is NOT present)" hide="yes" size="1" pos="101" show="0" value="0" unmaskedvalue="01"/>
                                      <field name="per.extension_present_bit" showname=".0.. .... Extension Present Bit: False" hide="yes" size="1" pos="101" show="0" value="0" unmaskedvalue="01"/>
                                      <field name="ngap.qosFlowIdentifier" showname="qosFlowIdentifier: 1" size="1" pos="101" show="1" value="01"/>
                                    </field>
                                  </field>
                                </field>
                              </field>
                            </field>
                          </field>
                        </field>
                      </field>
                    </field>
                  </field>
                </field>
              </field>
            </field>
          </field>
        </field>
      </field>
    </field>
  </proto>
</packet>


</pdml>
